
C:/Users/User/Desktop/243 project 2/path.axf:     file format elf32-littlearm


Disassembly of section .vectors:

00000000 <__cs3_interrupt_vector>:
   0:	18 f0 9f e5 18 f0 9f e5 18 f0 9f e5 18 f0 9f e5     ................
  10:	18 f0 9f e5 18 f0 9f e5 18 f0 9f e5 18 f0 9f e5     ................
  20:	60 00 00 00 bc 99 02 00 c0 99 02 00 c4 99 02 00     `...............
  30:	c8 99 02 00 b8 99 02 00 94 7e 02 00 cc 99 02 00     .........~......
.section .vectors, "ax"

B _start
  40:	40 00 00 ea a8 9f 00 ea a8 9f 00 ea a8 9f 00 ea     @...............
B SERVICE_UND
B SERVICE_SVC
B SERVICE_ABT_DATA
B SERVICE_ABT_INST
  50:	a8 9f 00 ea 00 00 00 00 a8 9f 00 ea a6 9f 00 ea     ................

Disassembly of section .text:

00000060 <__cs3_reset>:
      60:	ea000026 	b	100 <__cs3_start_asm_sim>

00000064 <__cs3_start_c>:
      64:	e59f608c 	ldr	r6, [pc, #140]	; f8 <__cs3_start_c+0x94>
      68:	e3560000 	cmp	r6, #0
      6c:	e92d4080 	push	{r7, lr}
      70:	e2466001 	sub	r6, r6, #1
      74:	0a00001e 	beq	f4 <__cs3_start_c+0x90>
      78:	e59f507c 	ldr	r5, [pc, #124]	; fc <__cs3_start_c+0x98>
      7c:	e3a00000 	mov	r0, #0
      80:	e3a01000 	mov	r1, #0
      84:	e515200c 	ldr	r2, [r5, #-12]
      88:	e515e010 	ldr	lr, [r5, #-16]
      8c:	e5154008 	ldr	r4, [r5, #-8]
      90:	e15e0002 	cmp	lr, r2
      94:	00822004 	addeq	r2, r2, r4
      98:	0a000009 	beq	c4 <__cs3_start_c+0x60>
      9c:	e3540000 	cmp	r4, #0
      a0:	0a000007 	beq	c4 <__cs3_start_c+0x60>
      a4:	e1a07002 	mov	r7, r2
      a8:	e1a0c002 	mov	r12, r2
      ac:	e8be000c 	ldm	lr!, {r2, r3}
      b0:	e8ac000c 	stmia	r12!, {r2, r3}
      b4:	e067300c 	rsb	r3, r7, r12
      b8:	e1540003 	cmp	r4, r3
      bc:	e1a0200c 	mov	r2, r12
      c0:	1afffff9 	bne	ac <__cs3_start_c+0x48>
      c4:	e515e004 	ldr	lr, [r5, #-4]
      c8:	e35e0000 	cmp	lr, #0
      cc:	11a03002 	movne	r3, r2
      d0:	0a000003 	beq	e4 <__cs3_start_c+0x80>
      d4:	e8a30003 	stmia	r3!, {r0, r1}
      d8:	e062c003 	rsb	r12, r2, r3
      dc:	e15e000c 	cmp	lr, r12
      e0:	1afffffb 	bne	d4 <__cs3_start_c+0x70>
      e4:	e2466001 	sub	r6, r6, #1
      e8:	e3760001 	cmn	r6, #1
      ec:	e2855014 	add	r5, r5, #20
      f0:	1affffe3 	bne	84 <__cs3_start_c+0x20>
      f4:	eb00a5e7 	bl	29898 <__cs3_premain>
      f8:	00000001 	.word	0x00000001
      fc:	0002a2c4 	.word	0x0002a2c4

00000100 <__cs3_start_asm_sim>:
     100:	e28f103c 	add	r1, pc, #60	; 0x3c
     104:	e3a00016 	mov	r0, #22
     108:	ef123456 	svc	0x00123456
     10c:	e3500000 	cmp	r0, #0
     110:	ba000008 	blt	138 <__cs3_start_asm_sim+0x38>
     114:	e59f2028 	ldr	r2, [pc, #40]	; 144 <__cs3_heap_start_ptr>
     118:	e59fd01c 	ldr	sp, [pc, #28]	; 13c <__cs3_start_asm_sim+0x3c>
     11c:	e5920008 	ldr	r0, [r2, #8]
     120:	e3500000 	cmp	r0, #0
     124:	11a0d000 	movne	sp, r0
     128:	e59f1010 	ldr	r1, [pc, #16]	; 140 <__cs3_start_asm_sim+0x40>
     12c:	e5920004 	ldr	r0, [r2, #4]
     130:	e3500000 	cmp	r0, #0
     134:	15810000 	strne	r0, [r1]
     138:	eaffffc9 	b	64 <__cs3_start_c>
     13c:	3ffffff8 	.word	0x3ffffff8
     140:	0002ab18 	.word	0x0002ab18

00000144 <__cs3_heap_start_ptr>:
     144:	0002aea8 	.word	0x0002aea8

00000148 <_start>:
     148:	e51fd000 	ldr	sp, [pc, #-0]	; 150 <_start+0x8>
     14c:	eaffffc4 	b	64 <__cs3_start_c>
     150:	3ffffff8 	.word	0x3ffffff8

00000154 <deregister_tm_clones>:
     154:	e92d4008 	push	{r3, lr}
     158:	e59f002c 	ldr	r0, [pc, #44]	; 18c <deregister_tm_clones+0x38>
     15c:	e59f302c 	ldr	r3, [pc, #44]	; 190 <deregister_tm_clones+0x3c>
     160:	e0603003 	rsb	r3, r0, r3
     164:	e3530006 	cmp	r3, #6
     168:	8a000001 	bhi	174 <deregister_tm_clones+0x20>
     16c:	e8bd4008 	pop	{r3, lr}
     170:	e12fff1e 	bx	lr
     174:	e59f3018 	ldr	r3, [pc, #24]	; 194 <deregister_tm_clones+0x40>
     178:	e3530000 	cmp	r3, #0
     17c:	0afffffa 	beq	16c <deregister_tm_clones+0x18>
     180:	e1a0e00f 	mov	lr, pc
     184:	e12fff13 	bx	r3
     188:	eafffff7 	b	16c <deregister_tm_clones+0x18>
     18c:	0002ab20 	.word	0x0002ab20
     190:	0002ab23 	.word	0x0002ab23
     194:	00000000 	.word	0x00000000

00000198 <register_tm_clones>:
     198:	e92d4008 	push	{r3, lr}
     19c:	e59f0034 	ldr	r0, [pc, #52]	; 1d8 <register_tm_clones+0x40>
     1a0:	e59f3034 	ldr	r3, [pc, #52]	; 1dc <register_tm_clones+0x44>
     1a4:	e0603003 	rsb	r3, r0, r3
     1a8:	e1a03143 	asr	r3, r3, #2
     1ac:	e0833fa3 	add	r3, r3, r3, lsr #31
     1b0:	e1b010c3 	asrs	r1, r3, #1
     1b4:	1a000001 	bne	1c0 <register_tm_clones+0x28>
     1b8:	e8bd4008 	pop	{r3, lr}
     1bc:	e12fff1e 	bx	lr
     1c0:	e59f2018 	ldr	r2, [pc, #24]	; 1e0 <register_tm_clones+0x48>
     1c4:	e3520000 	cmp	r2, #0
     1c8:	0afffffa 	beq	1b8 <register_tm_clones+0x20>
     1cc:	e1a0e00f 	mov	lr, pc
     1d0:	e12fff12 	bx	r2
     1d4:	eafffff7 	b	1b8 <register_tm_clones+0x20>
     1d8:	0002ab20 	.word	0x0002ab20
     1dc:	0002ab20 	.word	0x0002ab20
     1e0:	00000000 	.word	0x00000000

000001e4 <__do_global_dtors_aux>:
     1e4:	e92d4010 	push	{r4, lr}
     1e8:	e59f402c 	ldr	r4, [pc, #44]	; 21c <__do_global_dtors_aux+0x38>
     1ec:	e5d43000 	ldrb	r3, [r4]
     1f0:	e3530000 	cmp	r3, #0
     1f4:	1a000006 	bne	214 <__do_global_dtors_aux+0x30>
     1f8:	ebffffd5 	bl	154 <deregister_tm_clones>
     1fc:	e59f301c 	ldr	r3, [pc, #28]	; 220 <__do_global_dtors_aux+0x3c>
     200:	e3530000 	cmp	r3, #0
     204:	159f0018 	ldrne	r0, [pc, #24]	; 224 <__do_global_dtors_aux+0x40>
     208:	1320f000 	nopne	{0}
     20c:	e3a03001 	mov	r3, #1
     210:	e5c43000 	strb	r3, [r4]
     214:	e8bd4010 	pop	{r4, lr}
     218:	e12fff1e 	bx	lr
     21c:	0002ab20 	.word	0x0002ab20
     220:	00000000 	.word	0x00000000
     224:	00029a68 	.word	0x00029a68

00000228 <frame_dummy>:
     228:	e92d4008 	push	{r3, lr}
     22c:	e59f3034 	ldr	r3, [pc, #52]	; 268 <frame_dummy+0x40>
     230:	e3530000 	cmp	r3, #0
     234:	159f0030 	ldrne	r0, [pc, #48]	; 26c <frame_dummy+0x44>
     238:	159f1030 	ldrne	r1, [pc, #48]	; 270 <frame_dummy+0x48>
     23c:	1320f000 	nopne	{0}
     240:	e59f002c 	ldr	r0, [pc, #44]	; 274 <frame_dummy+0x4c>
     244:	e5903000 	ldr	r3, [r0]
     248:	e3530000 	cmp	r3, #0
     24c:	0a000003 	beq	260 <frame_dummy+0x38>
     250:	e59f3020 	ldr	r3, [pc, #32]	; 278 <frame_dummy+0x50>
     254:	e3530000 	cmp	r3, #0
     258:	11a0e00f 	movne	lr, pc
     25c:	112fff13 	bxne	r3
     260:	e8bd4008 	pop	{r3, lr}
     264:	eaffffcb 	b	198 <register_tm_clones>
     268:	00000000 	.word	0x00000000
     26c:	00029a68 	.word	0x00029a68
     270:	0002ab24 	.word	0x0002ab24
     274:	0002a2c8 	.word	0x0002a2c8
     278:	00000000 	.word	0x00000000

0000027c <path>:
	bool turned = false;
	int turns = 0;


int path(void)
{
     27c:	e92d4800 	push	{r11, lr}
     280:	e28db004 	add	r11, sp, #4
     284:	e24dd030 	sub	sp, sp, #48	; 0x30




	srand(time(NULL));
     288:	e3a00000 	mov	r0, #0
     28c:	eb00a18e 	bl	288cc <time>
     290:	e1a03000 	mov	r3, r0
     294:	e1a00003 	mov	r0, r3
     298:	eb00a16d 	bl	28854 <srand>

	volatile int * pixel_ctrl_ptr = (int *)0xFF203020;
     29c:	e3033020 	movw	r3, #12320	; 0x3020
     2a0:	e34f3f20 	movt	r3, #65312	; 0xff20
     2a4:	e50b3014 	str	r3, [r11, #-20]	; 0xffffffec

	volatile int * sw_ptr = (int *)0xFF200040;
     2a8:	e3a03040 	mov	r3, #64	; 0x40
     2ac:	e34f3f20 	movt	r3, #65312	; 0xff20
     2b0:	e50b3018 	str	r3, [r11, #-24]	; 0xffffffe8

	int  dx_Xs, dy_Xs, color_Xs;
	int value;


	bool up_pressed = false;
     2b4:	e3a03000 	mov	r3, #0
     2b8:	e54b3005 	strb	r3, [r11, #-5]
	bool down_pressed = false;
     2bc:	e3a03000 	mov	r3, #0
     2c0:	e54b3006 	strb	r3, [r11, #-6]
	bool right_pressed = false;
     2c4:	e3a03000 	mov	r3, #0
     2c8:	e54b3007 	strb	r3, [r11, #-7]
	bool left_pressed = false;
     2cc:	e3a03000 	mov	r3, #0
     2d0:	e54b3008 	strb	r3, [r11, #-8]
	*/

	// all turn points
	

	turn_x[0] = 150;
     2d4:	e30a3b40 	movw	r3, #43840	; 0xab40
     2d8:	e3403002 	movt	r3, #2
     2dc:	e3a02096 	mov	r2, #150	; 0x96
     2e0:	e5832000 	str	r2, [r3]
	turn_y[0] = 200;
     2e4:	e30a3cd0 	movw	r3, #44240	; 0xacd0
     2e8:	e3403002 	movt	r3, #2
     2ec:	e3a020c8 	mov	r2, #200	; 0xc8
     2f0:	e5832000 	str	r2, [r3]

	// directions of moving
	dy_Xs = 10; // 1 is down, -1 is up
     2f4:	e3a0300a 	mov	r3, #10
     2f8:	e50b301c 	str	r3, [r11, #-28]	; 0xffffffe4
	dx_Xs = 10; // 1 is right, -1 is left
     2fc:	e3a0300a 	mov	r3, #10
     300:	e50b3020 	str	r3, [r11, #-32]	; 0xffffffe0

	// initial location
	//x_Xs = 150;
	//y_Xs = 200;
	color_Xs = 0xFFFC;
     304:	e30f3ffc 	movw	r3, #65532	; 0xfffc
     308:	e50b3024 	str	r3, [r11, #-36]	; 0xffffffdc

	/* set front pixel buffer to start of FPGA On-chip memory */
	//*(pixel_ctrl_ptr + 1) = 0xC8000000; // first store the address in the 
										// back buffer
	/* now, swap the front/back buffers, to set the front buffer location */
	wait_for_vsync();
     30c:	eb00011e 	bl	78c <wait_for_vsync>
	/* initialize a pointer to the pixel buffer, used by drawing functions */
	pixel_buffer_start = *pixel_ctrl_ptr;
     310:	e51b3014 	ldr	r3, [r11, #-20]	; 0xffffffec
     314:	e5932000 	ldr	r2, [r3]
     318:	e30a3b3c 	movw	r3, #43836	; 0xab3c
     31c:	e3403002 	movt	r3, #2
     320:	e5832000 	str	r2, [r3]
	//clear_screen(); // pixel_buffer_start points to the pixel buffer

	//draw_background();

	/* set back pixel buffer to start of SDRAM memory */
	*(pixel_ctrl_ptr + 1) = 0xC0000000;
     324:	e51b3014 	ldr	r3, [r11, #-20]	; 0xffffffec
     328:	e2833004 	add	r3, r3, #4
     32c:	e3a02103 	mov	r2, #-1073741824	; 0xc0000000
     330:	e5832000 	str	r2, [r3]
	pixel_buffer_start = *(pixel_ctrl_ptr + 1); // we draw on the back buffer
     334:	e51b3014 	ldr	r3, [r11, #-20]	; 0xffffffec
     338:	e5932004 	ldr	r2, [r3, #4]
     33c:	e30a3b3c 	movw	r3, #43836	; 0xab3c
     340:	e3403002 	movt	r3, #2
     344:	e5832000 	str	r2, [r3]
	
	int count =0;
     348:	e3a03000 	mov	r3, #0
     34c:	e50b300c 	str	r3, [r11, #-12]
	while (count < 3)
     350:	ea000106 	b	770 <__cs3_region_zero_size_ram+0x3e8>
	{

		clear_screen();
     354:	eb000120 	bl	7dc <clear_screen>
		//extern assembly();

		// previously which direction is pressed
		if (up_pressed == true) {
     358:	e55b3005 	ldrb	r3, [r11, #-5]
     35c:	e3530000 	cmp	r3, #0
     360:	0a000004 	beq	378 <path+0xfc>
			previous_direction = 1;
     364:	e30a3e60 	movw	r3, #44640	; 0xae60
     368:	e3403002 	movt	r3, #2
     36c:	e3a02001 	mov	r2, #1
     370:	e5832000 	str	r2, [r3]
     374:	ea000016 	b	3d4 <__cs3_region_zero_size_ram+0x4c>
		}
		else if (down_pressed == true) {
     378:	e55b3006 	ldrb	r3, [r11, #-6]
     37c:	e3530000 	cmp	r3, #0
     380:	0a000004 	beq	398 <__cs3_region_zero_size_ram+0x10>
			previous_direction = 2;
     384:	e30a3e60 	movw	r3, #44640	; 0xae60
     388:	e3403002 	movt	r3, #2
     38c:	e3a02002 	mov	r2, #2
     390:	e5832000 	str	r2, [r3]
     394:	ea00000e 	b	3d4 <__cs3_region_zero_size_ram+0x4c>
		}
		else if (right_pressed == true) {
     398:	e55b3007 	ldrb	r3, [r11, #-7]
     39c:	e3530000 	cmp	r3, #0
     3a0:	0a000004 	beq	3b8 <__cs3_region_zero_size_ram+0x30>
			previous_direction = 3;
     3a4:	e30a3e60 	movw	r3, #44640	; 0xae60
     3a8:	e3403002 	movt	r3, #2
     3ac:	e3a02003 	mov	r2, #3
     3b0:	e5832000 	str	r2, [r3]
     3b4:	ea000006 	b	3d4 <__cs3_region_zero_size_ram+0x4c>
		}
		else if (left_pressed == true) {
     3b8:	e55b3008 	ldrb	r3, [r11, #-8]
     3bc:	e3530000 	cmp	r3, #0
     3c0:	0a000003 	beq	3d4 <__cs3_region_zero_size_ram+0x4c>
			previous_direction = 4;
     3c4:	e30a3e60 	movw	r3, #44640	; 0xae60
     3c8:	e3403002 	movt	r3, #2
     3cc:	e3a02004 	mov	r2, #4
     3d0:	e5832000 	str	r2, [r3]
	//	else {
	//		previous_direction = 0;
	//	}
	
		// clear the pressed flags
		up_pressed = false;
     3d4:	e3a03000 	mov	r3, #0
     3d8:	e54b3005 	strb	r3, [r11, #-5]
		down_pressed = false;
     3dc:	e3a03000 	mov	r3, #0
     3e0:	e54b3006 	strb	r3, [r11, #-6]
		right_pressed = false;
     3e4:	e3a03000 	mov	r3, #0
     3e8:	e54b3007 	strb	r3, [r11, #-7]
		left_pressed = false;
     3ec:	e3a03000 	mov	r3, #0
     3f0:	e54b3008 	strb	r3, [r11, #-8]

		// read the switches
		value = *sw_ptr;
     3f4:	e51b3018 	ldr	r3, [r11, #-24]	; 0xffffffe8
     3f8:	e5933000 	ldr	r3, [r3]
     3fc:	e50b3028 	str	r3, [r11, #-40]	; 0xffffffd8

		// which new direction is pressed, set pressed flag, register new directions
		if (VALUE == 0x00000001) {
     400:	e3073ee8 	movw	r3, #32488	; 0x7ee8
     404:	e3403002 	movt	r3, #2
     408:	e5933000 	ldr	r3, [r3]
     40c:	e3530001 	cmp	r3, #1
     410:	1a000006 	bne	430 <__cs3_region_zero_size_ram+0xa8>
			up_pressed = true;
     414:	e3a03001 	mov	r3, #1
     418:	e54b3005 	strb	r3, [r11, #-5]
			new_direction = 1;
     41c:	e30a3e64 	movw	r3, #44644	; 0xae64
     420:	e3403002 	movt	r3, #2
     424:	e3a02001 	mov	r2, #1
     428:	e5832000 	str	r2, [r3]
     42c:	ea000022 	b	4bc <__cs3_region_zero_size_ram+0x134>
		}
		else if (VALUE == 0x00000002) {
     430:	e3073ee8 	movw	r3, #32488	; 0x7ee8
     434:	e3403002 	movt	r3, #2
     438:	e5933000 	ldr	r3, [r3]
     43c:	e3530002 	cmp	r3, #2
     440:	1a000006 	bne	460 <__cs3_region_zero_size_ram+0xd8>
			down_pressed = true;
     444:	e3a03001 	mov	r3, #1
     448:	e54b3006 	strb	r3, [r11, #-6]
			new_direction = 2;
     44c:	e30a3e64 	movw	r3, #44644	; 0xae64
     450:	e3403002 	movt	r3, #2
     454:	e3a02002 	mov	r2, #2
     458:	e5832000 	str	r2, [r3]
     45c:	ea000016 	b	4bc <__cs3_region_zero_size_ram+0x134>
		}
		else if (VALUE == 0x00000004) {
     460:	e3073ee8 	movw	r3, #32488	; 0x7ee8
     464:	e3403002 	movt	r3, #2
     468:	e5933000 	ldr	r3, [r3]
     46c:	e3530004 	cmp	r3, #4
     470:	1a000006 	bne	490 <__cs3_region_zero_size_ram+0x108>
			right_pressed = true;
     474:	e3a03001 	mov	r3, #1
     478:	e54b3007 	strb	r3, [r11, #-7]
			new_direction = 3;
     47c:	e30a3e64 	movw	r3, #44644	; 0xae64
     480:	e3403002 	movt	r3, #2
     484:	e3a02003 	mov	r2, #3
     488:	e5832000 	str	r2, [r3]
     48c:	ea00000a 	b	4bc <__cs3_region_zero_size_ram+0x134>
		}
		else if (VALUE == 0x00000003) {
     490:	e3073ee8 	movw	r3, #32488	; 0x7ee8
     494:	e3403002 	movt	r3, #2
     498:	e5933000 	ldr	r3, [r3]
     49c:	e3530003 	cmp	r3, #3
     4a0:	1a000005 	bne	4bc <__cs3_region_zero_size_ram+0x134>
			left_pressed = true;
     4a4:	e3a03001 	mov	r3, #1
     4a8:	e54b3008 	strb	r3, [r11, #-8]
			new_direction = 4;
     4ac:	e30a3e64 	movw	r3, #44644	; 0xae64
     4b0:	e3403002 	movt	r3, #2
     4b4:	e3a02004 	mov	r2, #4
     4b8:	e5832000 	str	r2, [r3]
		}
	//	else {
	//		new_direction = 0;
	//	}

		if (previous_direction != new_direction) {
     4bc:	e30a3e60 	movw	r3, #44640	; 0xae60
     4c0:	e3403002 	movt	r3, #2
     4c4:	e5932000 	ldr	r2, [r3]
     4c8:	e30a3e64 	movw	r3, #44644	; 0xae64
     4cc:	e3403002 	movt	r3, #2
     4d0:	e5933000 	ldr	r3, [r3]
     4d4:	e1520003 	cmp	r2, r3
     4d8:	0a000004 	beq	4f0 <__cs3_region_zero_size_ram+0x168>
			turned = true;
     4dc:	e30a3e68 	movw	r3, #44648	; 0xae68
     4e0:	e3403002 	movt	r3, #2
     4e4:	e3a02001 	mov	r2, #1
     4e8:	e5c32000 	strb	r2, [r3]
     4ec:	ea000003 	b	500 <__cs3_region_zero_size_ram+0x178>
		} 
		else {
			turned = false;
     4f0:	e30a3e68 	movw	r3, #44648	; 0xae68
     4f4:	e3403002 	movt	r3, #2
     4f8:	e3a02000 	mov	r2, #0
     4fc:	e5c32000 	strb	r2, [r3]
		//draw_line(x_Xs[i], x_Xs[(i + 1) % N], y_Xs[i], y_Xs[(i + 1) % N], color_Xs[i]); // -> no need to draw line anymore since we want to have a moving box

		// code for updating the locations of boxes (not shown) -> needs to check for bound to bounce off


		if (turned) {
     500:	e30a3e68 	movw	r3, #44648	; 0xae68
     504:	e3403002 	movt	r3, #2
     508:	e5d33000 	ldrb	r3, [r3]
     50c:	e3530000 	cmp	r3, #0
     510:	0a000018 	beq	578 <__cs3_region_zero_size_ram+0x1f0>
			turns++;
     514:	e30a3e6c 	movw	r3, #44652	; 0xae6c
     518:	e3403002 	movt	r3, #2
     51c:	e5933000 	ldr	r3, [r3]
     520:	e2832001 	add	r2, r3, #1
     524:	e30a3e6c 	movw	r3, #44652	; 0xae6c
     528:	e3403002 	movt	r3, #2
     52c:	e5832000 	str	r2, [r3]
			turn_x[turns] = x_Xs;
     530:	e30a3e6c 	movw	r3, #44652	; 0xae6c
     534:	e3403002 	movt	r3, #2
     538:	e5932000 	ldr	r2, [r3]
     53c:	e30a32d0 	movw	r3, #41680	; 0xa2d0
     540:	e3403002 	movt	r3, #2
     544:	e5931000 	ldr	r1, [r3]
     548:	e30a3b40 	movw	r3, #43840	; 0xab40
     54c:	e3403002 	movt	r3, #2
     550:	e7831102 	str	r1, [r3, r2, lsl #2]
			turn_y[turns] = y_Xs;
     554:	e30a3e6c 	movw	r3, #44652	; 0xae6c
     558:	e3403002 	movt	r3, #2
     55c:	e5932000 	ldr	r2, [r3]
     560:	e30a32d4 	movw	r3, #41684	; 0xa2d4
     564:	e3403002 	movt	r3, #2
     568:	e5931000 	ldr	r1, [r3]
     56c:	e30a3cd0 	movw	r3, #44240	; 0xacd0
     570:	e3403002 	movt	r3, #2
     574:	e7831102 	str	r1, [r3, r2, lsl #2]
			//draw_line(150, prev_x, 100, prev_y, color_Xs);
			
		}
		
		if (right_pressed) {
     578:	e55b3007 	ldrb	r3, [r11, #-7]
     57c:	e3530000 	cmp	r3, #0
     580:	0a000007 	beq	5a4 <__cs3_region_zero_size_ram+0x21c>
			x_Xs += dx_Xs;
     584:	e30a32d0 	movw	r3, #41680	; 0xa2d0
     588:	e3403002 	movt	r3, #2
     58c:	e5932000 	ldr	r2, [r3]
     590:	e51b3020 	ldr	r3, [r11, #-32]	; 0xffffffe0
     594:	e0822003 	add	r2, r2, r3
     598:	e30a32d0 	movw	r3, #41680	; 0xa2d0
     59c:	e3403002 	movt	r3, #2
     5a0:	e5832000 	str	r2, [r3]
		}
		if (left_pressed) {
     5a4:	e55b3008 	ldrb	r3, [r11, #-8]
     5a8:	e3530000 	cmp	r3, #0
     5ac:	0a000007 	beq	5d0 <__cs3_region_zero_size_ram+0x248>
			x_Xs -= dx_Xs;
     5b0:	e30a32d0 	movw	r3, #41680	; 0xa2d0
     5b4:	e3403002 	movt	r3, #2
     5b8:	e5932000 	ldr	r2, [r3]
     5bc:	e51b3020 	ldr	r3, [r11, #-32]	; 0xffffffe0
     5c0:	e0632002 	rsb	r2, r3, r2
     5c4:	e30a32d0 	movw	r3, #41680	; 0xa2d0
     5c8:	e3403002 	movt	r3, #2
     5cc:	e5832000 	str	r2, [r3]
		}
		if (down_pressed) {
     5d0:	e55b3006 	ldrb	r3, [r11, #-6]
     5d4:	e3530000 	cmp	r3, #0
     5d8:	0a000007 	beq	5fc <__cs3_region_zero_size_ram+0x274>
			y_Xs += dy_Xs;
     5dc:	e30a32d4 	movw	r3, #41684	; 0xa2d4
     5e0:	e3403002 	movt	r3, #2
     5e4:	e5932000 	ldr	r2, [r3]
     5e8:	e51b301c 	ldr	r3, [r11, #-28]	; 0xffffffe4
     5ec:	e0822003 	add	r2, r2, r3
     5f0:	e30a32d4 	movw	r3, #41684	; 0xa2d4
     5f4:	e3403002 	movt	r3, #2
     5f8:	e5832000 	str	r2, [r3]
		}
		if (up_pressed) {
     5fc:	e55b3005 	ldrb	r3, [r11, #-5]
     600:	e3530000 	cmp	r3, #0
     604:	0a000007 	beq	628 <__cs3_region_zero_size_ram+0x2a0>
			y_Xs -= dy_Xs;
     608:	e30a32d4 	movw	r3, #41684	; 0xa2d4
     60c:	e3403002 	movt	r3, #2
     610:	e5932000 	ldr	r2, [r3]
     614:	e51b301c 	ldr	r3, [r11, #-28]	; 0xffffffe4
     618:	e0632002 	rsb	r2, r3, r2
     61c:	e30a32d4 	movw	r3, #41684	; 0xa2d4
     620:	e3403002 	movt	r3, #2
     624:	e5832000 	str	r2, [r3]
		}

		if (turns > 0) {
     628:	e30a3e6c 	movw	r3, #44652	; 0xae6c
     62c:	e3403002 	movt	r3, #2
     630:	e5933000 	ldr	r3, [r3]
     634:	e3530000 	cmp	r3, #0
     638:	da000022 	ble	6c8 <__cs3_region_zero_size_ram+0x340>
			int i = 0;
     63c:	e3a03000 	mov	r3, #0
     640:	e50b3010 	str	r3, [r11, #-16]
			for (i; i < turns; i++) {
     644:	ea000019 	b	6b0 <__cs3_region_zero_size_ram+0x328>
				draw_line(turn_x[i], turn_x[i + 1], turn_y[i], turn_y[i + 1], color_Xs);
     648:	e30a3b40 	movw	r3, #43840	; 0xab40
     64c:	e3403002 	movt	r3, #2
     650:	e51b2010 	ldr	r2, [r11, #-16]
     654:	e7930102 	ldr	r0, [r3, r2, lsl #2]
     658:	e51b3010 	ldr	r3, [r11, #-16]
     65c:	e2832001 	add	r2, r3, #1
     660:	e30a3b40 	movw	r3, #43840	; 0xab40
     664:	e3403002 	movt	r3, #2
     668:	e7931102 	ldr	r1, [r3, r2, lsl #2]
     66c:	e30a3cd0 	movw	r3, #44240	; 0xacd0
     670:	e3403002 	movt	r3, #2
     674:	e51b2010 	ldr	r2, [r11, #-16]
     678:	e7932102 	ldr	r2, [r3, r2, lsl #2]
     67c:	e51b3010 	ldr	r3, [r11, #-16]
     680:	e283c001 	add	r12, r3, #1
     684:	e30a3cd0 	movw	r3, #44240	; 0xacd0
     688:	e3403002 	movt	r3, #2
     68c:	e793310c 	ldr	r3, [r3, r12, lsl #2]
     690:	e51bc024 	ldr	r12, [r11, #-36]	; 0xffffffdc
     694:	e6ffc07c 	uxth	r12, r12
     698:	e6bfc07c 	sxth	r12, r12
     69c:	e58dc000 	str	r12, [sp]
     6a0:	eb000069 	bl	84c <draw_line>
			y_Xs -= dy_Xs;
		}

		if (turns > 0) {
			int i = 0;
			for (i; i < turns; i++) {
     6a4:	e51b3010 	ldr	r3, [r11, #-16]
     6a8:	e2833001 	add	r3, r3, #1
     6ac:	e50b3010 	str	r3, [r11, #-16]
     6b0:	e30a3e6c 	movw	r3, #44652	; 0xae6c
     6b4:	e3403002 	movt	r3, #2
     6b8:	e5933000 	ldr	r3, [r3]
     6bc:	e51b2010 	ldr	r2, [r11, #-16]
     6c0:	e1520003 	cmp	r2, r3
     6c4:	baffffdf 	blt	648 <__cs3_region_zero_size_ram+0x2c0>
				draw_line(turn_x[i], turn_x[i + 1], turn_y[i], turn_y[i + 1], color_Xs);
			}
		}

		//draw_box(x_Xs, y_Xs, color_Xs);
		draw_background();
     6c8:	eb0001b3 	bl	d9c <draw_background>
		draw_mario(x_Xs, y_Xs);
     6cc:	e30a32d0 	movw	r3, #41680	; 0xa2d0
     6d0:	e3403002 	movt	r3, #2
     6d4:	e5932000 	ldr	r2, [r3]
     6d8:	e30a32d4 	movw	r3, #41684	; 0xa2d4
     6dc:	e3403002 	movt	r3, #2
     6e0:	e5933000 	ldr	r3, [r3]
     6e4:	e1a00002 	mov	r0, r2
     6e8:	e1a01003 	mov	r1, r3
     6ec:	eb0000fe 	bl	aec <draw_mario>

		draw_line(turn_x[turns], x_Xs, turn_y[turns], y_Xs, color_Xs);
     6f0:	e30a3e6c 	movw	r3, #44652	; 0xae6c
     6f4:	e3403002 	movt	r3, #2
     6f8:	e5932000 	ldr	r2, [r3]
     6fc:	e30a3b40 	movw	r3, #43840	; 0xab40
     700:	e3403002 	movt	r3, #2
     704:	e7930102 	ldr	r0, [r3, r2, lsl #2]
     708:	e30a32d0 	movw	r3, #41680	; 0xa2d0
     70c:	e3403002 	movt	r3, #2
     710:	e5931000 	ldr	r1, [r3]
     714:	e30a3e6c 	movw	r3, #44652	; 0xae6c
     718:	e3403002 	movt	r3, #2
     71c:	e5932000 	ldr	r2, [r3]
     720:	e30a3cd0 	movw	r3, #44240	; 0xacd0
     724:	e3403002 	movt	r3, #2
     728:	e7932102 	ldr	r2, [r3, r2, lsl #2]
     72c:	e30a32d4 	movw	r3, #41684	; 0xa2d4
     730:	e3403002 	movt	r3, #2
     734:	e5933000 	ldr	r3, [r3]
     738:	e51bc024 	ldr	r12, [r11, #-36]	; 0xffffffdc
     73c:	e6ffc07c 	uxth	r12, r12
     740:	e6bfc07c 	sxth	r12, r12
     744:	e58dc000 	str	r12, [sp]
     748:	eb00003f 	bl	84c <draw_line>
				}
		*/
		//}
		//draw();

		wait_for_vsync(); // swap front and back buffers on VGA vertical sync
     74c:	eb00000e 	bl	78c <wait_for_vsync>
		pixel_buffer_start = *(pixel_ctrl_ptr + 1); // new back buffer
     750:	e51b3014 	ldr	r3, [r11, #-20]	; 0xffffffec
     754:	e5932004 	ldr	r2, [r3, #4]
     758:	e30a3b3c 	movw	r3, #43836	; 0xab3c
     75c:	e3403002 	movt	r3, #2
     760:	e5832000 	str	r2, [r3]
		count += 1;
     764:	e51b300c 	ldr	r3, [r11, #-12]
     768:	e2833001 	add	r3, r3, #1
     76c:	e50b300c 	str	r3, [r11, #-12]
	/* set back pixel buffer to start of SDRAM memory */
	*(pixel_ctrl_ptr + 1) = 0xC0000000;
	pixel_buffer_start = *(pixel_ctrl_ptr + 1); // we draw on the back buffer
	
	int count =0;
	while (count < 3)
     770:	e51b300c 	ldr	r3, [r11, #-12]
     774:	e3530002 	cmp	r3, #2
     778:	dafffef5 	ble	354 <path+0xd8>

		wait_for_vsync(); // swap front and back buffers on VGA vertical sync
		pixel_buffer_start = *(pixel_ctrl_ptr + 1); // new back buffer
		count += 1;
	}
	return 0;
     77c:	e3a03000 	mov	r3, #0
}
     780:	e1a00003 	mov	r0, r3
     784:	e24bd004 	sub	sp, r11, #4
     788:	e8bd8800 	pop	{r11, pc}

0000078c <wait_for_vsync>:

// code for subroutines (not shown)

void wait_for_vsync()
{
     78c:	e92d0810 	push	{r4, r11}
     790:	e28db004 	add	r11, sp, #4
     794:	e24dd008 	sub	sp, sp, #8
	volatile int *pixel_ctrl_ptr = 0xFF203020;	// pixel controller
     798:	e3033020 	movw	r3, #12320	; 0x3020
     79c:	e34f3f20 	movt	r3, #65312	; 0xff20
     7a0:	e50b3008 	str	r3, [r11, #-8]
	register int status;

	*pixel_ctrl_ptr = 1;	//write 1 for swap, start the synchronization process
     7a4:	e51b3008 	ldr	r3, [r11, #-8]
     7a8:	e3a02001 	mov	r2, #1
     7ac:	e5832000 	str	r2, [r3]

	status = *(pixel_ctrl_ptr + 3);	// why is this 3 in the note instead of C, since the status register s bit should be at 0xFF20302C
     7b0:	e51b3008 	ldr	r3, [r11, #-8]
     7b4:	e593400c 	ldr	r4, [r3, #12]
	while ((status & 0x01) != 0) {
     7b8:	ea000001 	b	7c4 <wait_for_vsync+0x38>
		status = *(pixel_ctrl_ptr + 3);	//why is this 3 and not 0xC?
     7bc:	e51b3008 	ldr	r3, [r11, #-8]
     7c0:	e593400c 	ldr	r4, [r3, #12]
	register int status;

	*pixel_ctrl_ptr = 1;	//write 1 for swap, start the synchronization process

	status = *(pixel_ctrl_ptr + 3);	// why is this 3 in the note instead of C, since the status register s bit should be at 0xFF20302C
	while ((status & 0x01) != 0) {
     7c4:	e2043001 	and	r3, r4, #1
     7c8:	e3530000 	cmp	r3, #0
     7cc:	1afffffa 	bne	7bc <wait_for_vsync+0x30>
		status = *(pixel_ctrl_ptr + 3);	//why is this 3 and not 0xC?
	}


}
     7d0:	e24bd004 	sub	sp, r11, #4
     7d4:	e8bd0810 	pop	{r4, r11}
     7d8:	e12fff1e 	bx	lr

000007dc <clear_screen>:

void clear_screen()
/* Clears screen by filling the screen with black pixels*/
{
     7dc:	e92d4800 	push	{r11, lr}
     7e0:	e28db004 	add	r11, sp, #4
     7e4:	e24dd008 	sub	sp, sp, #8
	int x;
	int y;
	for (x=0; x < 320; x++) {
     7e8:	e3a03000 	mov	r3, #0
     7ec:	e50b3008 	str	r3, [r11, #-8]
     7f0:	ea00000f 	b	834 <clear_screen+0x58>
		for (y=0; y < 240; y++) {
     7f4:	e3a03000 	mov	r3, #0
     7f8:	e50b300c 	str	r3, [r11, #-12]
     7fc:	ea000006 	b	81c <clear_screen+0x40>
			plot_pixel(x, y, 0x0000);
     800:	e51b0008 	ldr	r0, [r11, #-8]
     804:	e51b100c 	ldr	r1, [r11, #-12]
     808:	e3a02000 	mov	r2, #0
     80c:	eb00011c 	bl	c84 <plot_pixel>
/* Clears screen by filling the screen with black pixels*/
{
	int x;
	int y;
	for (x=0; x < 320; x++) {
		for (y=0; y < 240; y++) {
     810:	e51b300c 	ldr	r3, [r11, #-12]
     814:	e2833001 	add	r3, r3, #1
     818:	e50b300c 	str	r3, [r11, #-12]
     81c:	e51b300c 	ldr	r3, [r11, #-12]
     820:	e35300ef 	cmp	r3, #239	; 0xef
     824:	dafffff5 	ble	800 <clear_screen+0x24>
void clear_screen()
/* Clears screen by filling the screen with black pixels*/
{
	int x;
	int y;
	for (x=0; x < 320; x++) {
     828:	e51b3008 	ldr	r3, [r11, #-8]
     82c:	e2833001 	add	r3, r3, #1
     830:	e50b3008 	str	r3, [r11, #-8]
     834:	e51b2008 	ldr	r2, [r11, #-8]
     838:	e300313f 	movw	r3, #319	; 0x13f
     83c:	e1520003 	cmp	r2, r3
     840:	daffffeb 	ble	7f4 <clear_screen+0x18>
		for (y=0; y < 240; y++) {
			plot_pixel(x, y, 0x0000);
		}
	}
}
     844:	e24bd004 	sub	sp, r11, #4
     848:	e8bd8800 	pop	{r11, pc}

0000084c <draw_line>:

void draw_line(int x0, int x1, int y0, int y1, short int line_color)
{
     84c:	e92d4800 	push	{r11, lr}
     850:	e28db004 	add	r11, sp, #4
     854:	e24dd030 	sub	sp, sp, #48	; 0x30
     858:	e50b0028 	str	r0, [r11, #-40]	; 0xffffffd8
     85c:	e50b102c 	str	r1, [r11, #-44]	; 0xffffffd4
     860:	e50b2030 	str	r2, [r11, #-48]	; 0xffffffd0
     864:	e50b3034 	str	r3, [r11, #-52]	; 0xffffffcc
	bool is_steep = (abs(y1 - y0) > abs(x1 - x0));
     868:	e51b2034 	ldr	r2, [r11, #-52]	; 0xffffffcc
     86c:	e51b3030 	ldr	r3, [r11, #-48]	; 0xffffffd0
     870:	e0633002 	rsb	r3, r3, r2
     874:	e0232fc3 	eor	r2, r3, r3, asr #31
     878:	e0422fc3 	sub	r2, r2, r3, asr #31
     87c:	e51b102c 	ldr	r1, [r11, #-44]	; 0xffffffd4
     880:	e51b3028 	ldr	r3, [r11, #-40]	; 0xffffffd8
     884:	e0633001 	rsb	r3, r3, r1
     888:	e3530000 	cmp	r3, #0
     88c:	b2633000 	rsblt	r3, r3, #0
     890:	e1520003 	cmp	r2, r3
     894:	d3a03000 	movle	r3, #0
     898:	c3a03001 	movgt	r3, #1
     89c:	e54b3015 	strb	r3, [r11, #-21]	; 0xffffffeb
	if (is_steep) {
     8a0:	e55b3015 	ldrb	r3, [r11, #-21]	; 0xffffffeb
     8a4:	e3530000 	cmp	r3, #0
     8a8:	0a000009 	beq	8d4 <draw_line+0x88>
		swap(&x0, &y0);
     8ac:	e24b2028 	sub	r2, r11, #40	; 0x28
     8b0:	e24b3030 	sub	r3, r11, #48	; 0x30
     8b4:	e1a00002 	mov	r0, r2
     8b8:	e1a01003 	mov	r1, r3
     8bc:	eb0000de 	bl	c3c <swap>
		swap(&x1, &y1);
     8c0:	e24b202c 	sub	r2, r11, #44	; 0x2c
     8c4:	e24b3034 	sub	r3, r11, #52	; 0x34
     8c8:	e1a00002 	mov	r0, r2
     8cc:	e1a01003 	mov	r1, r3
     8d0:	eb0000d9 	bl	c3c <swap>
	}
	if (x0 > x1) {
     8d4:	e51b2028 	ldr	r2, [r11, #-40]	; 0xffffffd8
     8d8:	e51b302c 	ldr	r3, [r11, #-44]	; 0xffffffd4
     8dc:	e1520003 	cmp	r2, r3
     8e0:	da000009 	ble	90c <draw_line+0xc0>
		swap(&x0, &x1);
     8e4:	e24b2028 	sub	r2, r11, #40	; 0x28
     8e8:	e24b302c 	sub	r3, r11, #44	; 0x2c
     8ec:	e1a00002 	mov	r0, r2
     8f0:	e1a01003 	mov	r1, r3
     8f4:	eb0000d0 	bl	c3c <swap>
		swap(&y0, &y1);
     8f8:	e24b2030 	sub	r2, r11, #48	; 0x30
     8fc:	e24b3034 	sub	r3, r11, #52	; 0x34
     900:	e1a00002 	mov	r0, r2
     904:	e1a01003 	mov	r1, r3
     908:	eb0000cb 	bl	c3c <swap>
	}

	int deltax = x1 - x0;
     90c:	e51b202c 	ldr	r2, [r11, #-44]	; 0xffffffd4
     910:	e51b3028 	ldr	r3, [r11, #-40]	; 0xffffffd8
     914:	e0633002 	rsb	r3, r3, r2
     918:	e50b301c 	str	r3, [r11, #-28]	; 0xffffffe4
	int deltay = abs(y1 - y0);
     91c:	e51b2034 	ldr	r2, [r11, #-52]	; 0xffffffcc
     920:	e51b3030 	ldr	r3, [r11, #-48]	; 0xffffffd0
     924:	e0633002 	rsb	r3, r3, r2
     928:	e3530000 	cmp	r3, #0
     92c:	b2633000 	rsblt	r3, r3, #0
     930:	e50b3020 	str	r3, [r11, #-32]	; 0xffffffe0
	int error = -(deltax / 2);
     934:	e51b301c 	ldr	r3, [r11, #-28]	; 0xffffffe4
     938:	e1a02fa3 	lsr	r2, r3, #31
     93c:	e0823003 	add	r3, r2, r3
     940:	e1a030c3 	asr	r3, r3, #1
     944:	e2633000 	rsb	r3, r3, #0
     948:	e50b3008 	str	r3, [r11, #-8]
	int y = y0;
     94c:	e51b3030 	ldr	r3, [r11, #-48]	; 0xffffffd0
     950:	e50b300c 	str	r3, [r11, #-12]

	int y_step;
	if (y0 < y1) {
     954:	e51b2030 	ldr	r2, [r11, #-48]	; 0xffffffd0
     958:	e51b3034 	ldr	r3, [r11, #-52]	; 0xffffffcc
     95c:	e1520003 	cmp	r2, r3
     960:	aa000002 	bge	970 <draw_line+0x124>
		y_step = 1;
     964:	e3a03001 	mov	r3, #1
     968:	e50b3010 	str	r3, [r11, #-16]
     96c:	ea000001 	b	978 <draw_line+0x12c>
	}
	else {
		y_step = -1;
     970:	e3e03000 	mvn	r3, #0
     974:	e50b3010 	str	r3, [r11, #-16]
	}
	int x;
	for (x=x0; x < x1; x++) {
     978:	e51b3028 	ldr	r3, [r11, #-40]	; 0xffffffd8
     97c:	e50b3014 	str	r3, [r11, #-20]	; 0xffffffec
     980:	ea00001f 	b	a04 <draw_line+0x1b8>

		if (is_steep) {
     984:	e55b3015 	ldrb	r3, [r11, #-21]	; 0xffffffeb
     988:	e3530000 	cmp	r3, #0
     98c:	0a000005 	beq	9a8 <draw_line+0x15c>
			plot_pixel(y, x, line_color);
     990:	e1db30f4 	ldrsh	r3, [r11, #4]
     994:	e51b000c 	ldr	r0, [r11, #-12]
     998:	e51b1014 	ldr	r1, [r11, #-20]	; 0xffffffec
     99c:	e1a02003 	mov	r2, r3
     9a0:	eb0000b7 	bl	c84 <plot_pixel>
     9a4:	ea000004 	b	9bc <draw_line+0x170>
		}
		else {
			plot_pixel(x, y, line_color);
     9a8:	e1db30f4 	ldrsh	r3, [r11, #4]
     9ac:	e51b0014 	ldr	r0, [r11, #-20]	; 0xffffffec
     9b0:	e51b100c 	ldr	r1, [r11, #-12]
     9b4:	e1a02003 	mov	r2, r3
     9b8:	eb0000b1 	bl	c84 <plot_pixel>
		}

		error = error + deltay;
     9bc:	e51b2008 	ldr	r2, [r11, #-8]
     9c0:	e51b3020 	ldr	r3, [r11, #-32]	; 0xffffffe0
     9c4:	e0823003 	add	r3, r2, r3
     9c8:	e50b3008 	str	r3, [r11, #-8]

		if (error >= 0) {
     9cc:	e51b3008 	ldr	r3, [r11, #-8]
     9d0:	e3530000 	cmp	r3, #0
     9d4:	ba000007 	blt	9f8 <draw_line+0x1ac>
			y = y + y_step;
     9d8:	e51b200c 	ldr	r2, [r11, #-12]
     9dc:	e51b3010 	ldr	r3, [r11, #-16]
     9e0:	e0823003 	add	r3, r2, r3
     9e4:	e50b300c 	str	r3, [r11, #-12]
			error = error - deltax;
     9e8:	e51b2008 	ldr	r2, [r11, #-8]
     9ec:	e51b301c 	ldr	r3, [r11, #-28]	; 0xffffffe4
     9f0:	e0633002 	rsb	r3, r3, r2
     9f4:	e50b3008 	str	r3, [r11, #-8]
	}
	else {
		y_step = -1;
	}
	int x;
	for (x=x0; x < x1; x++) {
     9f8:	e51b3014 	ldr	r3, [r11, #-20]	; 0xffffffec
     9fc:	e2833001 	add	r3, r3, #1
     a00:	e50b3014 	str	r3, [r11, #-20]	; 0xffffffec
     a04:	e51b302c 	ldr	r3, [r11, #-44]	; 0xffffffd4
     a08:	e51b2014 	ldr	r2, [r11, #-20]	; 0xffffffec
     a0c:	e1520003 	cmp	r2, r3
     a10:	baffffdb 	blt	984 <draw_line+0x138>
			error = error - deltax;
		}

	}

}
     a14:	e24bd004 	sub	sp, r11, #4
     a18:	e8bd8800 	pop	{r11, pc}

00000a1c <draw_box>:


void draw_box(int x_center, int y_center, short int line_color)
{
     a1c:	e92d4800 	push	{r11, lr}
     a20:	e28db004 	add	r11, sp, #4
     a24:	e24dd030 	sub	sp, sp, #48	; 0x30
     a28:	e50b0028 	str	r0, [r11, #-40]	; 0xffffffd8
     a2c:	e50b102c 	str	r1, [r11, #-44]	; 0xffffffd4
     a30:	e1a03002 	mov	r3, r2
     a34:	e14b32be 	strh	r3, [r11, #-46]	; 0xffffffd2
	int size = 5;
     a38:	e3a03005 	mov	r3, #5
     a3c:	e50b3010 	str	r3, [r11, #-16]
	// assuming that boxes will bounce off once they reach the screen (size away from screen)
	// bouncing will be implemented outside of the function
	int x_min = x_center - size;
     a40:	e51b2028 	ldr	r2, [r11, #-40]	; 0xffffffd8
     a44:	e51b3010 	ldr	r3, [r11, #-16]
     a48:	e0633002 	rsb	r3, r3, r2
     a4c:	e50b3014 	str	r3, [r11, #-20]	; 0xffffffec
	int x_max = x_center + size;
     a50:	e51b2028 	ldr	r2, [r11, #-40]	; 0xffffffd8
     a54:	e51b3010 	ldr	r3, [r11, #-16]
     a58:	e0823003 	add	r3, r2, r3
     a5c:	e50b3018 	str	r3, [r11, #-24]	; 0xffffffe8
	int y_min = y_center - size;
     a60:	e51b202c 	ldr	r2, [r11, #-44]	; 0xffffffd4
     a64:	e51b3010 	ldr	r3, [r11, #-16]
     a68:	e0633002 	rsb	r3, r3, r2
     a6c:	e50b301c 	str	r3, [r11, #-28]	; 0xffffffe4
	int y_max = y_center + size;
     a70:	e51b202c 	ldr	r2, [r11, #-44]	; 0xffffffd4
     a74:	e51b3010 	ldr	r3, [r11, #-16]
     a78:	e0823003 	add	r3, r2, r3
     a7c:	e50b3020 	str	r3, [r11, #-32]	; 0xffffffe0
	
	int x;
	int y;
	for (x = x_min; x <= x_max; x++) {
     a80:	e51b3014 	ldr	r3, [r11, #-20]	; 0xffffffec
     a84:	e50b3008 	str	r3, [r11, #-8]
     a88:	ea000011 	b	ad4 <draw_box+0xb8>
		for (y = y_min; y <= y_max; y++) {
     a8c:	e51b301c 	ldr	r3, [r11, #-28]	; 0xffffffe4
     a90:	e50b300c 	str	r3, [r11, #-12]
     a94:	ea000007 	b	ab8 <draw_box+0x9c>
			plot_pixel(x, y, line_color);
     a98:	e15b32fe 	ldrsh	r3, [r11, #-46]	; 0xffffffd2
     a9c:	e51b0008 	ldr	r0, [r11, #-8]
     aa0:	e51b100c 	ldr	r1, [r11, #-12]
     aa4:	e1a02003 	mov	r2, r3
     aa8:	eb000075 	bl	c84 <plot_pixel>
	int y_max = y_center + size;
	
	int x;
	int y;
	for (x = x_min; x <= x_max; x++) {
		for (y = y_min; y <= y_max; y++) {
     aac:	e51b300c 	ldr	r3, [r11, #-12]
     ab0:	e2833001 	add	r3, r3, #1
     ab4:	e50b300c 	str	r3, [r11, #-12]
     ab8:	e51b200c 	ldr	r2, [r11, #-12]
     abc:	e51b3020 	ldr	r3, [r11, #-32]	; 0xffffffe0
     ac0:	e1520003 	cmp	r2, r3
     ac4:	dafffff3 	ble	a98 <draw_box+0x7c>
	int y_min = y_center - size;
	int y_max = y_center + size;
	
	int x;
	int y;
	for (x = x_min; x <= x_max; x++) {
     ac8:	e51b3008 	ldr	r3, [r11, #-8]
     acc:	e2833001 	add	r3, r3, #1
     ad0:	e50b3008 	str	r3, [r11, #-8]
     ad4:	e51b2008 	ldr	r2, [r11, #-8]
     ad8:	e51b3018 	ldr	r3, [r11, #-24]	; 0xffffffe8
     adc:	e1520003 	cmp	r2, r3
     ae0:	daffffe9 	ble	a8c <draw_box+0x70>
	}




}
     ae4:	e24bd004 	sub	sp, r11, #4
     ae8:	e8bd8800 	pop	{r11, pc}

00000aec <draw_mario>:


void draw_mario(int x_center, int y_center)
{
     aec:	e92d4800 	push	{r11, lr}
     af0:	e28db004 	add	r11, sp, #4
     af4:	e24dde83 	sub	sp, sp, #2096	; 0x830
     af8:	e50b0830 	str	r0, [r11, #-2096]	; 0xfffff7d0
     afc:	e50b1834 	str	r1, [r11, #-2100]	; 0xfffff7cc
	//draw_background();
	int size = 16;
     b00:	e3a03010 	mov	r3, #16
     b04:	e50b3010 	str	r3, [r11, #-16]
	// assuming that boxes will bounce off once they reach the screen (size away from screen)
	// bouncing will be implemented outside of the function
	int x_min = x_center - size;
     b08:	e51b2830 	ldr	r2, [r11, #-2096]	; 0xfffff7d0
     b0c:	e51b3010 	ldr	r3, [r11, #-16]
     b10:	e0633002 	rsb	r3, r3, r2
     b14:	e50b3014 	str	r3, [r11, #-20]	; 0xffffffec
	int x_max = x_center + (size - 1);
     b18:	e51b3010 	ldr	r3, [r11, #-16]
     b1c:	e2432001 	sub	r2, r3, #1
     b20:	e51b3830 	ldr	r3, [r11, #-2096]	; 0xfffff7d0
     b24:	e0823003 	add	r3, r2, r3
     b28:	e50b3018 	str	r3, [r11, #-24]	; 0xffffffe8
	int y_min = y_center - size;
     b2c:	e51b2834 	ldr	r2, [r11, #-2100]	; 0xfffff7cc
     b30:	e51b3010 	ldr	r3, [r11, #-16]
     b34:	e0633002 	rsb	r3, r3, r2
     b38:	e50b301c 	str	r3, [r11, #-28]	; 0xffffffe4
	int y_max = y_center + (size - 1);
     b3c:	e51b3010 	ldr	r3, [r11, #-16]
     b40:	e2432001 	sub	r2, r3, #1
     b44:	e51b3834 	ldr	r3, [r11, #-2100]	; 0xfffff7cc
     b48:	e0823003 	add	r3, r2, r3
     b4c:	e50b3020 	str	r3, [r11, #-32]	; 0xffffffe0

	int mario_x = 0;
     b50:	e3a03000 	mov	r3, #0
     b54:	e50b3024 	str	r3, [r11, #-36]	; 0xffffffdc
	int mario_y = 0;
     b58:	e3a03000 	mov	r3, #0
     b5c:	e50b3028 	str	r3, [r11, #-40]	; 0xffffffd8


	/* ----------------------- image array ---------------------------- */


	short mario_kart[32][32] = { {0b0000000000000000, 0b0000000000000000, 0b0000000000000000, 0b0000000000000000, 0b0000000000000000, 0b0000000000000000, 0b0000000000000000, 0b1001111011011100, 0b1001111011011100, 0b1001111011011100, 0b1001111011011100, 0b0000000000000000, 0b0000000000000000, 0b0000000000000000, 0b0000000000000000, 0b0000000000000000, 0b0000000000000000, 0b0000000000000000, 0b0000000000000000, 0b0000000000000000, 0b0000000000000000, 0b0000000000000000, 0b0000000000000000, 0b0000000000000000, 0b0010010110001001, 0b0000000000000000, 0b0000000000000000, 0b0000000000000000, 0b0000000000000000, 0b0000000000100000, 0b0001000010000010, 0b0000000000000000},
     b60:	e3092a6c 	movw	r2, #39532	; 0x9a6c
     b64:	e3402002 	movt	r2, #2
     b68:	e24b3e82 	sub	r3, r11, #2080	; 0x820
     b6c:	e2433004 	sub	r3, r3, #4
     b70:	e2433004 	sub	r3, r3, #4
     b74:	e1a01002 	mov	r1, r2
     b78:	e3a02b02 	mov	r2, #2048	; 0x800
     b7c:	e1a00003 	mov	r0, r3
     b80:	eb009e63 	bl	28514 <memcpy>

	/* ----------------------- image array ---------------------------- */

	int x ;
	int y ;
	for (x = x_min; x <= x_max; x++) {
     b84:	e51b3014 	ldr	r3, [r11, #-20]	; 0xffffffec
     b88:	e50b3008 	str	r3, [r11, #-8]
     b8c:	ea000024 	b	c24 <draw_mario+0x138>
		for (y = y_min; y <= y_max; y++) {
     b90:	e51b301c 	ldr	r3, [r11, #-28]	; 0xffffffe4
     b94:	e50b300c 	str	r3, [r11, #-12]
     b98:	ea00001a 	b	c08 <draw_mario+0x11c>
			mario_x = x - x_min;
     b9c:	e51b2008 	ldr	r2, [r11, #-8]
     ba0:	e51b3014 	ldr	r3, [r11, #-20]	; 0xffffffec
     ba4:	e0633002 	rsb	r3, r3, r2
     ba8:	e50b3024 	str	r3, [r11, #-36]	; 0xffffffdc
			mario_y = y - y_min;
     bac:	e51b200c 	ldr	r2, [r11, #-12]
     bb0:	e51b301c 	ldr	r3, [r11, #-28]	; 0xffffffe4
     bb4:	e0633002 	rsb	r3, r3, r2
     bb8:	e50b3028 	str	r3, [r11, #-40]	; 0xffffffd8
			plot_pixel(x, y, mario_kart[mario_x][mario_y]);
     bbc:	e51b3024 	ldr	r3, [r11, #-36]	; 0xffffffdc
     bc0:	e1a02283 	lsl	r2, r3, #5
     bc4:	e51b3028 	ldr	r3, [r11, #-40]	; 0xffffffd8
     bc8:	e0822003 	add	r2, r2, r3
     bcc:	e30f37dc 	movw	r3, #63452	; 0xf7dc
     bd0:	e34f3fff 	movt	r3, #65535	; 0xffff
     bd4:	e1a02082 	lsl	r2, r2, #1
     bd8:	e24b1004 	sub	r1, r11, #4
     bdc:	e0812002 	add	r2, r1, r2
     be0:	e0823003 	add	r3, r2, r3
     be4:	e1d330b0 	ldrh	r3, [r3]
     be8:	e6bf3073 	sxth	r3, r3
     bec:	e51b0008 	ldr	r0, [r11, #-8]
     bf0:	e51b100c 	ldr	r1, [r11, #-12]
     bf4:	e1a02003 	mov	r2, r3
     bf8:	eb000021 	bl	c84 <plot_pixel>
	/* ----------------------- image array ---------------------------- */

	int x ;
	int y ;
	for (x = x_min; x <= x_max; x++) {
		for (y = y_min; y <= y_max; y++) {
     bfc:	e51b300c 	ldr	r3, [r11, #-12]
     c00:	e2833001 	add	r3, r3, #1
     c04:	e50b300c 	str	r3, [r11, #-12]
     c08:	e51b200c 	ldr	r2, [r11, #-12]
     c0c:	e51b3020 	ldr	r3, [r11, #-32]	; 0xffffffe0
     c10:	e1520003 	cmp	r2, r3
     c14:	daffffe0 	ble	b9c <draw_mario+0xb0>

	/* ----------------------- image array ---------------------------- */

	int x ;
	int y ;
	for (x = x_min; x <= x_max; x++) {
     c18:	e51b3008 	ldr	r3, [r11, #-8]
     c1c:	e2833001 	add	r3, r3, #1
     c20:	e50b3008 	str	r3, [r11, #-8]
     c24:	e51b2008 	ldr	r2, [r11, #-8]
     c28:	e51b3018 	ldr	r3, [r11, #-24]	; 0xffffffe8
     c2c:	e1520003 	cmp	r2, r3
     c30:	daffffd6 	ble	b90 <draw_mario+0xa4>
	




}
     c34:	e24bd004 	sub	sp, r11, #4
     c38:	e8bd8800 	pop	{r11, pc}

00000c3c <swap>:

void swap(int* a, int* b)
{
     c3c:	e52db004 	push	{r11}		; (str r11, [sp, #-4]!)
     c40:	e28db000 	add	r11, sp, #0
     c44:	e24dd014 	sub	sp, sp, #20
     c48:	e50b0010 	str	r0, [r11, #-16]
     c4c:	e50b1014 	str	r1, [r11, #-20]	; 0xffffffec
	int temp = *a;
     c50:	e51b3010 	ldr	r3, [r11, #-16]
     c54:	e5933000 	ldr	r3, [r3]
     c58:	e50b3008 	str	r3, [r11, #-8]
	*a = *b;
     c5c:	e51b3014 	ldr	r3, [r11, #-20]	; 0xffffffec
     c60:	e5932000 	ldr	r2, [r3]
     c64:	e51b3010 	ldr	r3, [r11, #-16]
     c68:	e5832000 	str	r2, [r3]
	*b = temp;
     c6c:	e51b3014 	ldr	r3, [r11, #-20]	; 0xffffffec
     c70:	e51b2008 	ldr	r2, [r11, #-8]
     c74:	e5832000 	str	r2, [r3]
}
     c78:	e28bd000 	add	sp, r11, #0
     c7c:	e8bd0800 	ldmfd	sp!, {r11}
     c80:	e12fff1e 	bx	lr

00000c84 <plot_pixel>:


void plot_pixel(int x, int y, short int line_color)
{
     c84:	e52db004 	push	{r11}		; (str r11, [sp, #-4]!)
     c88:	e28db000 	add	r11, sp, #0
     c8c:	e24dd014 	sub	sp, sp, #20
     c90:	e50b0008 	str	r0, [r11, #-8]
     c94:	e50b100c 	str	r1, [r11, #-12]
     c98:	e1a03002 	mov	r3, r2
     c9c:	e14b30be 	strh	r3, [r11, #-14]
	*(short int *)(pixel_buffer_start + (y << 10) + (x << 1)) = line_color;
     ca0:	e51b300c 	ldr	r3, [r11, #-12]
     ca4:	e1a02503 	lsl	r2, r3, #10
     ca8:	e30a3b3c 	movw	r3, #43836	; 0xab3c
     cac:	e3403002 	movt	r3, #2
     cb0:	e5933000 	ldr	r3, [r3]
     cb4:	e0822003 	add	r2, r2, r3
     cb8:	e51b3008 	ldr	r3, [r11, #-8]
     cbc:	e1a03083 	lsl	r3, r3, #1
     cc0:	e0823003 	add	r3, r2, r3
     cc4:	e15b20be 	ldrh	r2, [r11, #-14]
     cc8:	e1c320b0 	strh	r2, [r3]
}
     ccc:	e28bd000 	add	sp, r11, #0
     cd0:	e8bd0800 	ldmfd	sp!, {r11}
     cd4:	e12fff1e 	bx	lr

00000cd8 <clear_cube>:

void clear_cube(int x_center, int y_center)
{
     cd8:	e92d4800 	push	{r11, lr}
     cdc:	e28db004 	add	r11, sp, #4
     ce0:	e24dd028 	sub	sp, sp, #40	; 0x28
     ce4:	e50b0028 	str	r0, [r11, #-40]	; 0xffffffd8
     ce8:	e50b102c 	str	r1, [r11, #-44]	; 0xffffffd4
	int size = 5;
     cec:	e3a03005 	mov	r3, #5
     cf0:	e50b3010 	str	r3, [r11, #-16]
	// assuming that boxes will bounce off once they reach the screen (size away from screen)
	// bouncing will be implemented outside of the function
	int x_min = x_center - size;
     cf4:	e51b2028 	ldr	r2, [r11, #-40]	; 0xffffffd8
     cf8:	e51b3010 	ldr	r3, [r11, #-16]
     cfc:	e0633002 	rsb	r3, r3, r2
     d00:	e50b3014 	str	r3, [r11, #-20]	; 0xffffffec
	int x_max = x_center + size;
     d04:	e51b2028 	ldr	r2, [r11, #-40]	; 0xffffffd8
     d08:	e51b3010 	ldr	r3, [r11, #-16]
     d0c:	e0823003 	add	r3, r2, r3
     d10:	e50b3018 	str	r3, [r11, #-24]	; 0xffffffe8
	int y_min = y_center - size;
     d14:	e51b202c 	ldr	r2, [r11, #-44]	; 0xffffffd4
     d18:	e51b3010 	ldr	r3, [r11, #-16]
     d1c:	e0633002 	rsb	r3, r3, r2
     d20:	e50b301c 	str	r3, [r11, #-28]	; 0xffffffe4
	int y_max = y_center + size;
     d24:	e51b202c 	ldr	r2, [r11, #-44]	; 0xffffffd4
     d28:	e51b3010 	ldr	r3, [r11, #-16]
     d2c:	e0823003 	add	r3, r2, r3
     d30:	e50b3020 	str	r3, [r11, #-32]	; 0xffffffe0
	int x;
	int y ;
	for (x = x_min; x <= x_max; x++) {
     d34:	e51b3014 	ldr	r3, [r11, #-20]	; 0xffffffec
     d38:	e50b3008 	str	r3, [r11, #-8]
     d3c:	ea000010 	b	d84 <clear_cube+0xac>
		for (y = y_min; y <= y_max; y++) {
     d40:	e51b301c 	ldr	r3, [r11, #-28]	; 0xffffffe4
     d44:	e50b300c 	str	r3, [r11, #-12]
     d48:	ea000006 	b	d68 <clear_cube+0x90>
			plot_pixel(x, y, 0x0000);
     d4c:	e51b0008 	ldr	r0, [r11, #-8]
     d50:	e51b100c 	ldr	r1, [r11, #-12]
     d54:	e3a02000 	mov	r2, #0
     d58:	ebffffc9 	bl	c84 <plot_pixel>
	int y_min = y_center - size;
	int y_max = y_center + size;
	int x;
	int y ;
	for (x = x_min; x <= x_max; x++) {
		for (y = y_min; y <= y_max; y++) {
     d5c:	e51b300c 	ldr	r3, [r11, #-12]
     d60:	e2833001 	add	r3, r3, #1
     d64:	e50b300c 	str	r3, [r11, #-12]
     d68:	e51b200c 	ldr	r2, [r11, #-12]
     d6c:	e51b3020 	ldr	r3, [r11, #-32]	; 0xffffffe0
     d70:	e1520003 	cmp	r2, r3
     d74:	dafffff4 	ble	d4c <clear_cube+0x74>
	int x_max = x_center + size;
	int y_min = y_center - size;
	int y_max = y_center + size;
	int x;
	int y ;
	for (x = x_min; x <= x_max; x++) {
     d78:	e51b3008 	ldr	r3, [r11, #-8]
     d7c:	e2833001 	add	r3, r3, #1
     d80:	e50b3008 	str	r3, [r11, #-8]
     d84:	e51b2008 	ldr	r2, [r11, #-8]
     d88:	e51b3018 	ldr	r3, [r11, #-24]	; 0xffffffe8
     d8c:	e1520003 	cmp	r2, r3
     d90:	daffffea 	ble	d40 <clear_cube+0x68>
		for (y = y_min; y <= y_max; y++) {
			plot_pixel(x, y, 0x0000);
		}

	}
}
     d94:	e24bd004 	sub	sp, r11, #4
     d98:	e8bd8800 	pop	{r11, pc}

00000d9c <draw_background>:

void draw_background() {
     d9c:	e92d4800 	push	{r11, lr}
     da0:	e28db004 	add	r11, sp, #4
     da4:	e24ddcf5 	sub	sp, sp, #62720	; 0xf500
     da8:	e24dd008 	sub	sp, sp, #8


	/*-----------------------------------------BACKGROUND-------------------------------*/

	short background[320][98] = { {0b0000000000000000, 0b0000000000000000, 0b0000000000000000, 0b0000000000000000, 0b0000000000000000, 0b0000000000000000, 0b0000000000000000, 0b0000000000000000, 0b0000000000000000, 0b0000000000000000, 0b0000000000000000, 0b0000000000000000, 0b0000000000000000, 0b0000000000000000, 0b0000000000000000, 0b0000000000000000, 0b0000000000000000, 0b0000000000000000, 0b0000000000000000, 0b0000000000000000, 0b0000000000000000, 0b0000000000000000, 0b0000000000000000, 0b0000000000000000, 0b0000000000000000, 0b0000000000000000, 0b0000000000000000, 0b0000000000000000, 0b0000000000000000, 0b0000000000000000, 0b0000000000000000, 0b0000000000000000, 0b0000000000000000, 0b0000000000000000, 0b0000000000000000, 0b0000000000000000, 0b0000000000000000, 0b0000000000000000, 0b0000000000000000, 0b0000000000000000, 0b0000000000000000, 0b0000000000000000, 0b0000000000000000, 0b0000000000000000, 0b0000000000000000, 0b0000000000000000, 0b0000000000000000, 0b0000000000000000, 0b0000000000000000, 0b0000000000000000, 0b0000000000000000, 0b0000000000000000, 0b0000000000000000, 0b0000000000000000, 0b0000000000000000, 0b0000000000000000, 0b0000000000000000, 0b0000000000000000, 0b0000000000000000, 0b0000000000000000, 0b0000000000000000, 0b0000000000000000, 0b0000000000000000, 0b0000000000000000, 0b0000000000000000, 0b0000000000000000, 0b0000000000000000, 0b0000000000000000, 0b0000000000000000, 0b0000000000000000, 0b0000000000000000, 0b0000000000000000, 0b0000000000000000, 0b0000000000000000, 0b0000000000000000, 0b0000000000000000, 0b0000000000000000, 0b0000000000000000, 0b0000000000000000, 0b0000000000000000, 0b0000000000000000, 0b0000000000000000, 0b0000000000000000, 0b0000000000000000, 0b0000000000000000, 0b0000000000000000, 0b0000000000000000, 0b0000000000000000, 0b0000000000000000, 0b0000000000000000, 0b0000000000000000, 0b0000000000000000, 0b0000000000000000, 0b0000000000000000, 0b0000000000000000, 0b0000000000000000, 0b0000000000000000, 0b0000000000000000},
     dac:	e3003af8 	movw	r3, #2808	; 0xaf8
     db0:	e34f3fff 	movt	r3, #65535	; 0xffff
     db4:	e24b1004 	sub	r1, r11, #4
     db8:	e0812003 	add	r2, r1, r3
     dbc:	e3a03cf5 	mov	r3, #62720	; 0xf500
     dc0:	e1a00002 	mov	r0, r2
     dc4:	e3a01000 	mov	r1, #0
     dc8:	e1a02003 	mov	r2, r3
     dcc:	eb009e53 	bl	28720 <memset>
     dd0:	e3003af8 	movw	r3, #2808	; 0xaf8
     dd4:	e34f3fff 	movt	r3, #65535	; 0xffff
     dd8:	e3a02e1e 	mov	r2, #480	; 0x1e0
     ddc:	e24b1004 	sub	r1, r11, #4
     de0:	e0813003 	add	r3, r1, r3
     de4:	e0832002 	add	r2, r3, r2
     de8:	e30b3724 	movw	r3, #46884	; 0xb724
     dec:	e34f3fff 	movt	r3, #65535	; 0xffff
     df0:	e1c230b0 	strh	r3, [r2]
     df4:	e3003af8 	movw	r3, #2808	; 0xaf8
     df8:	e34f3fff 	movt	r3, #65535	; 0xffff
     dfc:	e30021e2 	movw	r2, #482	; 0x1e2
     e00:	e24b1004 	sub	r1, r11, #4
     e04:	e0813003 	add	r3, r1, r3
     e08:	e0832002 	add	r2, r3, r2
     e0c:	e30b3724 	movw	r3, #46884	; 0xb724
     e10:	e34f3fff 	movt	r3, #65535	; 0xffff
     e14:	e1c230b0 	strh	r3, [r2]
     e18:	e3003af8 	movw	r3, #2808	; 0xaf8
     e1c:	e34f3fff 	movt	r3, #65535	; 0xffff
     e20:	e30022a2 	movw	r2, #674	; 0x2a2
     e24:	e24b1004 	sub	r1, r11, #4
     e28:	e0813003 	add	r3, r1, r3
     e2c:	e0832002 	add	r2, r3, r2
     e30:	e30b3724 	movw	r3, #46884	; 0xb724
     e34:	e34f3fff 	movt	r3, #65535	; 0xffff
     e38:	e1c230b0 	strh	r3, [r2]
     e3c:	e3003af8 	movw	r3, #2808	; 0xaf8
     e40:	e34f3fff 	movt	r3, #65535	; 0xffff
     e44:	e3a02fa9 	mov	r2, #676	; 0x2a4
     e48:	e24b1004 	sub	r1, r11, #4
     e4c:	e0813003 	add	r3, r1, r3
     e50:	e0832002 	add	r2, r3, r2
     e54:	e30b3724 	movw	r3, #46884	; 0xb724
     e58:	e34f3fff 	movt	r3, #65535	; 0xffff
     e5c:	e1c230b0 	strh	r3, [r2]
     e60:	e3003af8 	movw	r3, #2808	; 0xaf8
     e64:	e34f3fff 	movt	r3, #65535	; 0xffff
     e68:	e30022a6 	movw	r2, #678	; 0x2a6
     e6c:	e24b1004 	sub	r1, r11, #4
     e70:	e0813003 	add	r3, r1, r3
     e74:	e0832002 	add	r2, r3, r2
     e78:	e30b3724 	movw	r3, #46884	; 0xb724
     e7c:	e34f3fff 	movt	r3, #65535	; 0xffff
     e80:	e1c230b0 	strh	r3, [r2]
     e84:	e3003af8 	movw	r3, #2808	; 0xaf8
     e88:	e34f3fff 	movt	r3, #65535	; 0xffff
     e8c:	e3a02faa 	mov	r2, #680	; 0x2a8
     e90:	e24b1004 	sub	r1, r11, #4
     e94:	e0813003 	add	r3, r1, r3
     e98:	e0832002 	add	r2, r3, r2
     e9c:	e30b3724 	movw	r3, #46884	; 0xb724
     ea0:	e34f3fff 	movt	r3, #65535	; 0xffff
     ea4:	e1c230b0 	strh	r3, [r2]
     ea8:	e3003af8 	movw	r3, #2808	; 0xaf8
     eac:	e34f3fff 	movt	r3, #65535	; 0xffff
     eb0:	e3002342 	movw	r2, #834	; 0x342
     eb4:	e24b1004 	sub	r1, r11, #4
     eb8:	e0813003 	add	r3, r1, r3
     ebc:	e0832002 	add	r2, r3, r2
     ec0:	e30b3724 	movw	r3, #46884	; 0xb724
     ec4:	e34f3fff 	movt	r3, #65535	; 0xffff
     ec8:	e1c230b0 	strh	r3, [r2]
     ecc:	e3003af8 	movw	r3, #2808	; 0xaf8
     ed0:	e34f3fff 	movt	r3, #65535	; 0xffff
     ed4:	e3a02fd1 	mov	r2, #836	; 0x344
     ed8:	e24b1004 	sub	r1, r11, #4
     edc:	e0813003 	add	r3, r1, r3
     ee0:	e0832002 	add	r2, r3, r2
     ee4:	e30b3724 	movw	r3, #46884	; 0xb724
     ee8:	e34f3fff 	movt	r3, #65535	; 0xffff
     eec:	e1c230b0 	strh	r3, [r2]
     ef0:	e3003af8 	movw	r3, #2808	; 0xaf8
     ef4:	e34f3fff 	movt	r3, #65535	; 0xffff
     ef8:	e3002366 	movw	r2, #870	; 0x366
     efc:	e24b1004 	sub	r1, r11, #4
     f00:	e0813003 	add	r3, r1, r3
     f04:	e0832002 	add	r2, r3, r2
     f08:	e30b3724 	movw	r3, #46884	; 0xb724
     f0c:	e34f3fff 	movt	r3, #65535	; 0xffff
     f10:	e1c230b0 	strh	r3, [r2]
     f14:	e3003af8 	movw	r3, #2808	; 0xaf8
     f18:	e34f3fff 	movt	r3, #65535	; 0xffff
     f1c:	e3a02fda 	mov	r2, #872	; 0x368
     f20:	e24b1004 	sub	r1, r11, #4
     f24:	e0813003 	add	r3, r1, r3
     f28:	e0832002 	add	r2, r3, r2
     f2c:	e30b3724 	movw	r3, #46884	; 0xb724
     f30:	e34f3fff 	movt	r3, #65535	; 0xffff
     f34:	e1c230b0 	strh	r3, [r2]
     f38:	e3003af8 	movw	r3, #2808	; 0xaf8
     f3c:	e34f3fff 	movt	r3, #65535	; 0xffff
     f40:	e300236a 	movw	r2, #874	; 0x36a
     f44:	e24b1004 	sub	r1, r11, #4
     f48:	e0813003 	add	r3, r1, r3
     f4c:	e0832002 	add	r2, r3, r2
     f50:	e30b3724 	movw	r3, #46884	; 0xb724
     f54:	e34f3fff 	movt	r3, #65535	; 0xffff
     f58:	e1c230b0 	strh	r3, [r2]
     f5c:	e3003af8 	movw	r3, #2808	; 0xaf8
     f60:	e34f3fff 	movt	r3, #65535	; 0xffff
     f64:	e3a02fdb 	mov	r2, #876	; 0x36c
     f68:	e24b1004 	sub	r1, r11, #4
     f6c:	e0813003 	add	r3, r1, r3
     f70:	e0832002 	add	r2, r3, r2
     f74:	e30b3724 	movw	r3, #46884	; 0xb724
     f78:	e34f3fff 	movt	r3, #65535	; 0xffff
     f7c:	e1c230b0 	strh	r3, [r2]
     f80:	e3003af8 	movw	r3, #2808	; 0xaf8
     f84:	e34f3fff 	movt	r3, #65535	; 0xffff
     f88:	e3002404 	movw	r2, #1028	; 0x404
     f8c:	e24b1004 	sub	r1, r11, #4
     f90:	e0813003 	add	r3, r1, r3
     f94:	e0832002 	add	r2, r3, r2
     f98:	e30b3724 	movw	r3, #46884	; 0xb724
     f9c:	e34f3fff 	movt	r3, #65535	; 0xffff
     fa0:	e1c230b0 	strh	r3, [r2]
     fa4:	e3003af8 	movw	r3, #2808	; 0xaf8
     fa8:	e34f3fff 	movt	r3, #65535	; 0xffff
     fac:	e3002406 	movw	r2, #1030	; 0x406
     fb0:	e24b1004 	sub	r1, r11, #4
     fb4:	e0813003 	add	r3, r1, r3
     fb8:	e0832002 	add	r2, r3, r2
     fbc:	e30b3724 	movw	r3, #46884	; 0xb724
     fc0:	e34f3fff 	movt	r3, #65535	; 0xffff
     fc4:	e1c230b0 	strh	r3, [r2]
     fc8:	e3003af8 	movw	r3, #2808	; 0xaf8
     fcc:	e34f3fff 	movt	r3, #65535	; 0xffff
     fd0:	e3002408 	movw	r2, #1032	; 0x408
     fd4:	e24b1004 	sub	r1, r11, #4
     fd8:	e0813003 	add	r3, r1, r3
     fdc:	e0832002 	add	r2, r3, r2
     fe0:	e30b3724 	movw	r3, #46884	; 0xb724
     fe4:	e34f3fff 	movt	r3, #65535	; 0xffff
     fe8:	e1c230b0 	strh	r3, [r2]
     fec:	e3003af8 	movw	r3, #2808	; 0xaf8
     ff0:	e34f3fff 	movt	r3, #65535	; 0xffff
     ff4:	e300240a 	movw	r2, #1034	; 0x40a
     ff8:	e24b1004 	sub	r1, r11, #4
     ffc:	e0813003 	add	r3, r1, r3
    1000:	e0832002 	add	r2, r3, r2
    1004:	e30b3724 	movw	r3, #46884	; 0xb724
    1008:	e34f3fff 	movt	r3, #65535	; 0xffff
    100c:	e1c230b0 	strh	r3, [r2]
    1010:	e3003af8 	movw	r3, #2808	; 0xaf8
    1014:	e34f3fff 	movt	r3, #65535	; 0xffff
    1018:	e300242c 	movw	r2, #1068	; 0x42c
    101c:	e24b1004 	sub	r1, r11, #4
    1020:	e0813003 	add	r3, r1, r3
    1024:	e0832002 	add	r2, r3, r2
    1028:	e30b3724 	movw	r3, #46884	; 0xb724
    102c:	e34f3fff 	movt	r3, #65535	; 0xffff
    1030:	e1c230b0 	strh	r3, [r2]
    1034:	e3003af8 	movw	r3, #2808	; 0xaf8
    1038:	e34f3fff 	movt	r3, #65535	; 0xffff
    103c:	e300242e 	movw	r2, #1070	; 0x42e
    1040:	e24b1004 	sub	r1, r11, #4
    1044:	e0813003 	add	r3, r1, r3
    1048:	e0832002 	add	r2, r3, r2
    104c:	e30b3724 	movw	r3, #46884	; 0xb724
    1050:	e34f3fff 	movt	r3, #65535	; 0xffff
    1054:	e1c230b0 	strh	r3, [r2]
    1058:	e3003af8 	movw	r3, #2808	; 0xaf8
    105c:	e34f3fff 	movt	r3, #65535	; 0xffff
    1060:	e30024c8 	movw	r2, #1224	; 0x4c8
    1064:	e24b1004 	sub	r1, r11, #4
    1068:	e0813003 	add	r3, r1, r3
    106c:	e0832002 	add	r2, r3, r2
    1070:	e30b3724 	movw	r3, #46884	; 0xb724
    1074:	e34f3fff 	movt	r3, #65535	; 0xffff
    1078:	e1c230b0 	strh	r3, [r2]
    107c:	e3003af8 	movw	r3, #2808	; 0xaf8
    1080:	e34f3fff 	movt	r3, #65535	; 0xffff
    1084:	e30024ca 	movw	r2, #1226	; 0x4ca
    1088:	e24b1004 	sub	r1, r11, #4
    108c:	e0813003 	add	r3, r1, r3
    1090:	e0832002 	add	r2, r3, r2
    1094:	e30b3724 	movw	r3, #46884	; 0xb724
    1098:	e34f3fff 	movt	r3, #65535	; 0xffff
    109c:	e1c230b0 	strh	r3, [r2]
    10a0:	e3003af8 	movw	r3, #2808	; 0xaf8
    10a4:	e34f3fff 	movt	r3, #65535	; 0xffff
    10a8:	e30024cc 	movw	r2, #1228	; 0x4cc
    10ac:	e24b1004 	sub	r1, r11, #4
    10b0:	e0813003 	add	r3, r1, r3
    10b4:	e0832002 	add	r2, r3, r2
    10b8:	e30b3724 	movw	r3, #46884	; 0xb724
    10bc:	e34f3fff 	movt	r3, #65535	; 0xffff
    10c0:	e1c230b0 	strh	r3, [r2]
    10c4:	e3003af8 	movw	r3, #2808	; 0xaf8
    10c8:	e34f3fff 	movt	r3, #65535	; 0xffff
    10cc:	e30024ce 	movw	r2, #1230	; 0x4ce
    10d0:	e24b1004 	sub	r1, r11, #4
    10d4:	e0813003 	add	r3, r1, r3
    10d8:	e0832002 	add	r2, r3, r2
    10dc:	e30b3724 	movw	r3, #46884	; 0xb724
    10e0:	e34f3fff 	movt	r3, #65535	; 0xffff
    10e4:	e1c230b0 	strh	r3, [r2]
    10e8:	e3003af8 	movw	r3, #2808	; 0xaf8
    10ec:	e34f3fff 	movt	r3, #65535	; 0xffff
    10f0:	e300258e 	movw	r2, #1422	; 0x58e
    10f4:	e24b1004 	sub	r1, r11, #4
    10f8:	e0813003 	add	r3, r1, r3
    10fc:	e0832002 	add	r2, r3, r2
    1100:	e30b3724 	movw	r3, #46884	; 0xb724
    1104:	e34f3fff 	movt	r3, #65535	; 0xffff
    1108:	e1c230b0 	strh	r3, [r2]
    110c:	e3003af8 	movw	r3, #2808	; 0xaf8
    1110:	e34f3fff 	movt	r3, #65535	; 0xffff
    1114:	e3a02e59 	mov	r2, #1424	; 0x590
    1118:	e24b1004 	sub	r1, r11, #4
    111c:	e0813003 	add	r3, r1, r3
    1120:	e0832002 	add	r2, r3, r2
    1124:	e30b3724 	movw	r3, #46884	; 0xb724
    1128:	e34f3fff 	movt	r3, #65535	; 0xffff
    112c:	e1c230b0 	strh	r3, [r2]
    1130:	e3003af8 	movw	r3, #2808	; 0xaf8
    1134:	e34f3fff 	movt	r3, #65535	; 0xffff
    1138:	e300282e 	movw	r2, #2094	; 0x82e
    113c:	e24b1004 	sub	r1, r11, #4
    1140:	e0813003 	add	r3, r1, r3
    1144:	e0832002 	add	r2, r3, r2
    1148:	e30b3724 	movw	r3, #46884	; 0xb724
    114c:	e34f3fff 	movt	r3, #65535	; 0xffff
    1150:	e1c230b0 	strh	r3, [r2]
    1154:	e3003af8 	movw	r3, #2808	; 0xaf8
    1158:	e34f3fff 	movt	r3, #65535	; 0xffff
    115c:	e3a02e83 	mov	r2, #2096	; 0x830
    1160:	e24b1004 	sub	r1, r11, #4
    1164:	e0813003 	add	r3, r1, r3
    1168:	e0832002 	add	r2, r3, r2
    116c:	e30b3724 	movw	r3, #46884	; 0xb724
    1170:	e34f3fff 	movt	r3, #65535	; 0xffff
    1174:	e1c230b0 	strh	r3, [r2]
    1178:	e3003af8 	movw	r3, #2808	; 0xaf8
    117c:	e34f3fff 	movt	r3, #65535	; 0xffff
    1180:	e3a02e8f 	mov	r2, #2288	; 0x8f0
    1184:	e24b1004 	sub	r1, r11, #4
    1188:	e0813003 	add	r3, r1, r3
    118c:	e0832002 	add	r2, r3, r2
    1190:	e30b3724 	movw	r3, #46884	; 0xb724
    1194:	e34f3fff 	movt	r3, #65535	; 0xffff
    1198:	e1c230b0 	strh	r3, [r2]
    119c:	e3003af8 	movw	r3, #2808	; 0xaf8
    11a0:	e34f3fff 	movt	r3, #65535	; 0xffff
    11a4:	e30028f2 	movw	r2, #2290	; 0x8f2
    11a8:	e24b1004 	sub	r1, r11, #4
    11ac:	e0813003 	add	r3, r1, r3
    11b0:	e0832002 	add	r2, r3, r2
    11b4:	e30b3724 	movw	r3, #46884	; 0xb724
    11b8:	e34f3fff 	movt	r3, #65535	; 0xffff
    11bc:	e1c230b0 	strh	r3, [r2]
    11c0:	e3003af8 	movw	r3, #2808	; 0xaf8
    11c4:	e34f3fff 	movt	r3, #65535	; 0xffff
    11c8:	e30028f4 	movw	r2, #2292	; 0x8f4
    11cc:	e24b1004 	sub	r1, r11, #4
    11d0:	e0813003 	add	r3, r1, r3
    11d4:	e0832002 	add	r2, r3, r2
    11d8:	e30b3724 	movw	r3, #46884	; 0xb724
    11dc:	e34f3fff 	movt	r3, #65535	; 0xffff
    11e0:	e1c230b0 	strh	r3, [r2]
    11e4:	e3003af8 	movw	r3, #2808	; 0xaf8
    11e8:	e34f3fff 	movt	r3, #65535	; 0xffff
    11ec:	e30028f6 	movw	r2, #2294	; 0x8f6
    11f0:	e24b1004 	sub	r1, r11, #4
    11f4:	e0813003 	add	r3, r1, r3
    11f8:	e0832002 	add	r2, r3, r2
    11fc:	e30b3724 	movw	r3, #46884	; 0xb724
    1200:	e34f3fff 	movt	r3, #65535	; 0xffff
    1204:	e1c230b0 	strh	r3, [r2]
    1208:	e3003af8 	movw	r3, #2808	; 0xaf8
    120c:	e34f3fff 	movt	r3, #65535	; 0xffff
    1210:	e30029b4 	movw	r2, #2484	; 0x9b4
    1214:	e24b1004 	sub	r1, r11, #4
    1218:	e0813003 	add	r3, r1, r3
    121c:	e0832002 	add	r2, r3, r2
    1220:	e30b3724 	movw	r3, #46884	; 0xb724
    1224:	e34f3fff 	movt	r3, #65535	; 0xffff
    1228:	e1c230b0 	strh	r3, [r2]
    122c:	e3003af8 	movw	r3, #2808	; 0xaf8
    1230:	e34f3fff 	movt	r3, #65535	; 0xffff
    1234:	e30029b6 	movw	r2, #2486	; 0x9b6
    1238:	e24b1004 	sub	r1, r11, #4
    123c:	e0813003 	add	r3, r1, r3
    1240:	e0832002 	add	r2, r3, r2
    1244:	e30b3724 	movw	r3, #46884	; 0xb724
    1248:	e34f3fff 	movt	r3, #65535	; 0xffff
    124c:	e1c230b0 	strh	r3, [r2]
    1250:	e3003af8 	movw	r3, #2808	; 0xaf8
    1254:	e34f3fff 	movt	r3, #65535	; 0xffff
    1258:	e30029b8 	movw	r2, #2488	; 0x9b8
    125c:	e24b1004 	sub	r1, r11, #4
    1260:	e0813003 	add	r3, r1, r3
    1264:	e0832002 	add	r2, r3, r2
    1268:	e30b3724 	movw	r3, #46884	; 0xb724
    126c:	e34f3fff 	movt	r3, #65535	; 0xffff
    1270:	e1c230b0 	strh	r3, [r2]
    1274:	e3003af8 	movw	r3, #2808	; 0xaf8
    1278:	e34f3fff 	movt	r3, #65535	; 0xffff
    127c:	e30029ba 	movw	r2, #2490	; 0x9ba
    1280:	e24b1004 	sub	r1, r11, #4
    1284:	e0813003 	add	r3, r1, r3
    1288:	e0832002 	add	r2, r3, r2
    128c:	e30b3724 	movw	r3, #46884	; 0xb724
    1290:	e34f3fff 	movt	r3, #65535	; 0xffff
    1294:	e1c230b0 	strh	r3, [r2]
    1298:	e3003af8 	movw	r3, #2808	; 0xaf8
    129c:	e34f3fff 	movt	r3, #65535	; 0xffff
    12a0:	e3002a7a 	movw	r2, #2682	; 0xa7a
    12a4:	e24b1004 	sub	r1, r11, #4
    12a8:	e0813003 	add	r3, r1, r3
    12ac:	e0832002 	add	r2, r3, r2
    12b0:	e30b3724 	movw	r3, #46884	; 0xb724
    12b4:	e34f3fff 	movt	r3, #65535	; 0xffff
    12b8:	e1c230b0 	strh	r3, [r2]
    12bc:	e3003af8 	movw	r3, #2808	; 0xaf8
    12c0:	e34f3fff 	movt	r3, #65535	; 0xffff
    12c4:	e3002a7c 	movw	r2, #2684	; 0xa7c
    12c8:	e24b1004 	sub	r1, r11, #4
    12cc:	e0813003 	add	r3, r1, r3
    12d0:	e0832002 	add	r2, r3, r2
    12d4:	e30b3724 	movw	r3, #46884	; 0xb724
    12d8:	e34f3fff 	movt	r3, #65535	; 0xffff
    12dc:	e1c230b0 	strh	r3, [r2]
    12e0:	e3003af8 	movw	r3, #2808	; 0xaf8
    12e4:	e34f3fff 	movt	r3, #65535	; 0xffff
    12e8:	e3002ad8 	movw	r2, #2776	; 0xad8
    12ec:	e24b1004 	sub	r1, r11, #4
    12f0:	e0813003 	add	r3, r1, r3
    12f4:	e0832002 	add	r2, r3, r2
    12f8:	e30b3724 	movw	r3, #46884	; 0xb724
    12fc:	e34f3fff 	movt	r3, #65535	; 0xffff
    1300:	e1c230b0 	strh	r3, [r2]
    1304:	e3003af8 	movw	r3, #2808	; 0xaf8
    1308:	e34f3fff 	movt	r3, #65535	; 0xffff
    130c:	e3002ada 	movw	r2, #2778	; 0xada
    1310:	e24b1004 	sub	r1, r11, #4
    1314:	e0813003 	add	r3, r1, r3
    1318:	e0832002 	add	r2, r3, r2
    131c:	e30b3724 	movw	r3, #46884	; 0xb724
    1320:	e34f3fff 	movt	r3, #65535	; 0xffff
    1324:	e1c230b0 	strh	r3, [r2]
    1328:	e3003af8 	movw	r3, #2808	; 0xaf8
    132c:	e34f3fff 	movt	r3, #65535	; 0xffff
    1330:	e3002ae2 	movw	r2, #2786	; 0xae2
    1334:	e24b1004 	sub	r1, r11, #4
    1338:	e0813003 	add	r3, r1, r3
    133c:	e0833002 	add	r3, r3, r2
    1340:	e3e0207f 	mvn	r2, #127	; 0x7f
    1344:	e1c320b0 	strh	r2, [r3]
    1348:	e3003af8 	movw	r3, #2808	; 0xaf8
    134c:	e34f3fff 	movt	r3, #65535	; 0xffff
    1350:	e3002ae4 	movw	r2, #2788	; 0xae4
    1354:	e24b1004 	sub	r1, r11, #4
    1358:	e0813003 	add	r3, r1, r3
    135c:	e0833002 	add	r3, r3, r2
    1360:	e3e0207f 	mvn	r2, #127	; 0x7f
    1364:	e1c320b0 	strh	r2, [r3]
    1368:	e3003af8 	movw	r3, #2808	; 0xaf8
    136c:	e34f3fff 	movt	r3, #65535	; 0xffff
    1370:	e3002ae6 	movw	r2, #2790	; 0xae6
    1374:	e24b1004 	sub	r1, r11, #4
    1378:	e0813003 	add	r3, r1, r3
    137c:	e0833002 	add	r3, r3, r2
    1380:	e3e0207f 	mvn	r2, #127	; 0x7f
    1384:	e1c320b0 	strh	r2, [r3]
    1388:	e3003af8 	movw	r3, #2808	; 0xaf8
    138c:	e34f3fff 	movt	r3, #65535	; 0xffff
    1390:	e3002ae8 	movw	r2, #2792	; 0xae8
    1394:	e24b1004 	sub	r1, r11, #4
    1398:	e0813003 	add	r3, r1, r3
    139c:	e0833002 	add	r3, r3, r2
    13a0:	e3e0207f 	mvn	r2, #127	; 0x7f
    13a4:	e1c320b0 	strh	r2, [r3]
    13a8:	e3003af8 	movw	r3, #2808	; 0xaf8
    13ac:	e34f3fff 	movt	r3, #65535	; 0xffff
    13b0:	e3002aea 	movw	r2, #2794	; 0xaea
    13b4:	e24b1004 	sub	r1, r11, #4
    13b8:	e0813003 	add	r3, r1, r3
    13bc:	e0833002 	add	r3, r3, r2
    13c0:	e3e0207f 	mvn	r2, #127	; 0x7f
    13c4:	e1c320b0 	strh	r2, [r3]
    13c8:	e3003af8 	movw	r3, #2808	; 0xaf8
    13cc:	e34f3fff 	movt	r3, #65535	; 0xffff
    13d0:	e3002aec 	movw	r2, #2796	; 0xaec
    13d4:	e24b1004 	sub	r1, r11, #4
    13d8:	e0813003 	add	r3, r1, r3
    13dc:	e0833002 	add	r3, r3, r2
    13e0:	e3e0207f 	mvn	r2, #127	; 0x7f
    13e4:	e1c320b0 	strh	r2, [r3]
    13e8:	e3003af8 	movw	r3, #2808	; 0xaf8
    13ec:	e34f3fff 	movt	r3, #65535	; 0xffff
    13f0:	e3002aee 	movw	r2, #2798	; 0xaee
    13f4:	e24b1004 	sub	r1, r11, #4
    13f8:	e0813003 	add	r3, r1, r3
    13fc:	e0833002 	add	r3, r3, r2
    1400:	e3e0207f 	mvn	r2, #127	; 0x7f
    1404:	e1c320b0 	strh	r2, [r3]
    1408:	e3003af8 	movw	r3, #2808	; 0xaf8
    140c:	e34f3fff 	movt	r3, #65535	; 0xffff
    1410:	e3a02eaf 	mov	r2, #2800	; 0xaf0
    1414:	e24b1004 	sub	r1, r11, #4
    1418:	e0813003 	add	r3, r1, r3
    141c:	e0833002 	add	r3, r3, r2
    1420:	e3e0207f 	mvn	r2, #127	; 0x7f
    1424:	e1c320b0 	strh	r2, [r3]
    1428:	e3003af8 	movw	r3, #2808	; 0xaf8
    142c:	e34f3fff 	movt	r3, #65535	; 0xffff
    1430:	e3002af2 	movw	r2, #2802	; 0xaf2
    1434:	e24b1004 	sub	r1, r11, #4
    1438:	e0813003 	add	r3, r1, r3
    143c:	e0833002 	add	r3, r3, r2
    1440:	e3e0207f 	mvn	r2, #127	; 0x7f
    1444:	e1c320b0 	strh	r2, [r3]
    1448:	e3003af8 	movw	r3, #2808	; 0xaf8
    144c:	e34f3fff 	movt	r3, #65535	; 0xffff
    1450:	e3002af4 	movw	r2, #2804	; 0xaf4
    1454:	e24b1004 	sub	r1, r11, #4
    1458:	e0813003 	add	r3, r1, r3
    145c:	e0833002 	add	r3, r3, r2
    1460:	e3e0207f 	mvn	r2, #127	; 0x7f
    1464:	e1c320b0 	strh	r2, [r3]
    1468:	e3003af8 	movw	r3, #2808	; 0xaf8
    146c:	e34f3fff 	movt	r3, #65535	; 0xffff
    1470:	e3002af6 	movw	r2, #2806	; 0xaf6
    1474:	e24b1004 	sub	r1, r11, #4
    1478:	e0813003 	add	r3, r1, r3
    147c:	e0833002 	add	r3, r3, r2
    1480:	e3e0207f 	mvn	r2, #127	; 0x7f
    1484:	e1c320b0 	strh	r2, [r3]
    1488:	e3003af8 	movw	r3, #2808	; 0xaf8
    148c:	e34f3fff 	movt	r3, #65535	; 0xffff
    1490:	e3002af8 	movw	r2, #2808	; 0xaf8
    1494:	e24b1004 	sub	r1, r11, #4
    1498:	e0813003 	add	r3, r1, r3
    149c:	e0833002 	add	r3, r3, r2
    14a0:	e3e0207f 	mvn	r2, #127	; 0x7f
    14a4:	e1c320b0 	strh	r2, [r3]
    14a8:	e3003af8 	movw	r3, #2808	; 0xaf8
    14ac:	e34f3fff 	movt	r3, #65535	; 0xffff
    14b0:	e3002afa 	movw	r2, #2810	; 0xafa
    14b4:	e24b1004 	sub	r1, r11, #4
    14b8:	e0813003 	add	r3, r1, r3
    14bc:	e0833002 	add	r3, r3, r2
    14c0:	e3e0207f 	mvn	r2, #127	; 0x7f
    14c4:	e1c320b0 	strh	r2, [r3]
    14c8:	e3003af8 	movw	r3, #2808	; 0xaf8
    14cc:	e34f3fff 	movt	r3, #65535	; 0xffff
    14d0:	e3002afc 	movw	r2, #2812	; 0xafc
    14d4:	e24b1004 	sub	r1, r11, #4
    14d8:	e0813003 	add	r3, r1, r3
    14dc:	e0833002 	add	r3, r3, r2
    14e0:	e3e0207f 	mvn	r2, #127	; 0x7f
    14e4:	e1c320b0 	strh	r2, [r3]
    14e8:	e3003af8 	movw	r3, #2808	; 0xaf8
    14ec:	e34f3fff 	movt	r3, #65535	; 0xffff
    14f0:	e3002afe 	movw	r2, #2814	; 0xafe
    14f4:	e24b1004 	sub	r1, r11, #4
    14f8:	e0813003 	add	r3, r1, r3
    14fc:	e0833002 	add	r3, r3, r2
    1500:	e3e0207f 	mvn	r2, #127	; 0x7f
    1504:	e1c320b0 	strh	r2, [r3]
    1508:	e3003af8 	movw	r3, #2808	; 0xaf8
    150c:	e34f3fff 	movt	r3, #65535	; 0xffff
    1510:	e3a02c0b 	mov	r2, #2816	; 0xb00
    1514:	e24b1004 	sub	r1, r11, #4
    1518:	e0813003 	add	r3, r1, r3
    151c:	e0833002 	add	r3, r3, r2
    1520:	e3e0207f 	mvn	r2, #127	; 0x7f
    1524:	e1c320b0 	strh	r2, [r3]
    1528:	e3003af8 	movw	r3, #2808	; 0xaf8
    152c:	e34f3fff 	movt	r3, #65535	; 0xffff
    1530:	e3002b02 	movw	r2, #2818	; 0xb02
    1534:	e24b1004 	sub	r1, r11, #4
    1538:	e0813003 	add	r3, r1, r3
    153c:	e0833002 	add	r3, r3, r2
    1540:	e3e0207f 	mvn	r2, #127	; 0x7f
    1544:	e1c320b0 	strh	r2, [r3]
    1548:	e3003af8 	movw	r3, #2808	; 0xaf8
    154c:	e34f3fff 	movt	r3, #65535	; 0xffff
    1550:	e3002b04 	movw	r2, #2820	; 0xb04
    1554:	e24b1004 	sub	r1, r11, #4
    1558:	e0813003 	add	r3, r1, r3
    155c:	e0833002 	add	r3, r3, r2
    1560:	e3e0207f 	mvn	r2, #127	; 0x7f
    1564:	e1c320b0 	strh	r2, [r3]
    1568:	e3003af8 	movw	r3, #2808	; 0xaf8
    156c:	e34f3fff 	movt	r3, #65535	; 0xffff
    1570:	e3002b06 	movw	r2, #2822	; 0xb06
    1574:	e24b1004 	sub	r1, r11, #4
    1578:	e0813003 	add	r3, r1, r3
    157c:	e0833002 	add	r3, r3, r2
    1580:	e3e0207f 	mvn	r2, #127	; 0x7f
    1584:	e1c320b0 	strh	r2, [r3]
    1588:	e3003af8 	movw	r3, #2808	; 0xaf8
    158c:	e34f3fff 	movt	r3, #65535	; 0xffff
    1590:	e3002b08 	movw	r2, #2824	; 0xb08
    1594:	e24b1004 	sub	r1, r11, #4
    1598:	e0813003 	add	r3, r1, r3
    159c:	e0833002 	add	r3, r3, r2
    15a0:	e3e0207f 	mvn	r2, #127	; 0x7f
    15a4:	e1c320b0 	strh	r2, [r3]
    15a8:	e3003af8 	movw	r3, #2808	; 0xaf8
    15ac:	e34f3fff 	movt	r3, #65535	; 0xffff
    15b0:	e3002b0a 	movw	r2, #2826	; 0xb0a
    15b4:	e24b1004 	sub	r1, r11, #4
    15b8:	e0813003 	add	r3, r1, r3
    15bc:	e0833002 	add	r3, r3, r2
    15c0:	e3e0207f 	mvn	r2, #127	; 0x7f
    15c4:	e1c320b0 	strh	r2, [r3]
    15c8:	e3003af8 	movw	r3, #2808	; 0xaf8
    15cc:	e34f3fff 	movt	r3, #65535	; 0xffff
    15d0:	e3002b0c 	movw	r2, #2828	; 0xb0c
    15d4:	e24b1004 	sub	r1, r11, #4
    15d8:	e0813003 	add	r3, r1, r3
    15dc:	e0833002 	add	r3, r3, r2
    15e0:	e3e0207f 	mvn	r2, #127	; 0x7f
    15e4:	e1c320b0 	strh	r2, [r3]
    15e8:	e3003af8 	movw	r3, #2808	; 0xaf8
    15ec:	e34f3fff 	movt	r3, #65535	; 0xffff
    15f0:	e3002b0e 	movw	r2, #2830	; 0xb0e
    15f4:	e24b1004 	sub	r1, r11, #4
    15f8:	e0813003 	add	r3, r1, r3
    15fc:	e0833002 	add	r3, r3, r2
    1600:	e3e0207f 	mvn	r2, #127	; 0x7f
    1604:	e1c320b0 	strh	r2, [r3]
    1608:	e3003af8 	movw	r3, #2808	; 0xaf8
    160c:	e34f3fff 	movt	r3, #65535	; 0xffff
    1610:	e3a02eb1 	mov	r2, #2832	; 0xb10
    1614:	e24b1004 	sub	r1, r11, #4
    1618:	e0813003 	add	r3, r1, r3
    161c:	e0833002 	add	r3, r3, r2
    1620:	e3e0207f 	mvn	r2, #127	; 0x7f
    1624:	e1c320b0 	strh	r2, [r3]
    1628:	e3003af8 	movw	r3, #2808	; 0xaf8
    162c:	e34f3fff 	movt	r3, #65535	; 0xffff
    1630:	e3002b12 	movw	r2, #2834	; 0xb12
    1634:	e24b1004 	sub	r1, r11, #4
    1638:	e0813003 	add	r3, r1, r3
    163c:	e0833002 	add	r3, r3, r2
    1640:	e3e0207f 	mvn	r2, #127	; 0x7f
    1644:	e1c320b0 	strh	r2, [r3]
    1648:	e3003af8 	movw	r3, #2808	; 0xaf8
    164c:	e34f3fff 	movt	r3, #65535	; 0xffff
    1650:	e3002b14 	movw	r2, #2836	; 0xb14
    1654:	e24b1004 	sub	r1, r11, #4
    1658:	e0813003 	add	r3, r1, r3
    165c:	e0833002 	add	r3, r3, r2
    1660:	e3e0207f 	mvn	r2, #127	; 0x7f
    1664:	e1c320b0 	strh	r2, [r3]
    1668:	e3003af8 	movw	r3, #2808	; 0xaf8
    166c:	e34f3fff 	movt	r3, #65535	; 0xffff
    1670:	e3002b16 	movw	r2, #2838	; 0xb16
    1674:	e24b1004 	sub	r1, r11, #4
    1678:	e0813003 	add	r3, r1, r3
    167c:	e0833002 	add	r3, r3, r2
    1680:	e3e0207f 	mvn	r2, #127	; 0x7f
    1684:	e1c320b0 	strh	r2, [r3]
    1688:	e3003af8 	movw	r3, #2808	; 0xaf8
    168c:	e34f3fff 	movt	r3, #65535	; 0xffff
    1690:	e3002b18 	movw	r2, #2840	; 0xb18
    1694:	e24b1004 	sub	r1, r11, #4
    1698:	e0813003 	add	r3, r1, r3
    169c:	e0833002 	add	r3, r3, r2
    16a0:	e3e0207f 	mvn	r2, #127	; 0x7f
    16a4:	e1c320b0 	strh	r2, [r3]
    16a8:	e3003af8 	movw	r3, #2808	; 0xaf8
    16ac:	e34f3fff 	movt	r3, #65535	; 0xffff
    16b0:	e3002b1a 	movw	r2, #2842	; 0xb1a
    16b4:	e24b1004 	sub	r1, r11, #4
    16b8:	e0813003 	add	r3, r1, r3
    16bc:	e0833002 	add	r3, r3, r2
    16c0:	e3e0207f 	mvn	r2, #127	; 0x7f
    16c4:	e1c320b0 	strh	r2, [r3]
    16c8:	e3003af8 	movw	r3, #2808	; 0xaf8
    16cc:	e34f3fff 	movt	r3, #65535	; 0xffff
    16d0:	e3002b1c 	movw	r2, #2844	; 0xb1c
    16d4:	e24b1004 	sub	r1, r11, #4
    16d8:	e0813003 	add	r3, r1, r3
    16dc:	e0833002 	add	r3, r3, r2
    16e0:	e3e0207f 	mvn	r2, #127	; 0x7f
    16e4:	e1c320b0 	strh	r2, [r3]
    16e8:	e3003af8 	movw	r3, #2808	; 0xaf8
    16ec:	e34f3fff 	movt	r3, #65535	; 0xffff
    16f0:	e3002b1e 	movw	r2, #2846	; 0xb1e
    16f4:	e24b1004 	sub	r1, r11, #4
    16f8:	e0813003 	add	r3, r1, r3
    16fc:	e0833002 	add	r3, r3, r2
    1700:	e3e0207f 	mvn	r2, #127	; 0x7f
    1704:	e1c320b0 	strh	r2, [r3]
    1708:	e3003af8 	movw	r3, #2808	; 0xaf8
    170c:	e34f3fff 	movt	r3, #65535	; 0xffff
    1710:	e3a02eb2 	mov	r2, #2848	; 0xb20
    1714:	e24b1004 	sub	r1, r11, #4
    1718:	e0813003 	add	r3, r1, r3
    171c:	e0833002 	add	r3, r3, r2
    1720:	e3e0207f 	mvn	r2, #127	; 0x7f
    1724:	e1c320b0 	strh	r2, [r3]
    1728:	e3003af8 	movw	r3, #2808	; 0xaf8
    172c:	e34f3fff 	movt	r3, #65535	; 0xffff
    1730:	e3002b9a 	movw	r2, #2970	; 0xb9a
    1734:	e24b1004 	sub	r1, r11, #4
    1738:	e0813003 	add	r3, r1, r3
    173c:	e0832002 	add	r2, r3, r2
    1740:	e30b3724 	movw	r3, #46884	; 0xb724
    1744:	e34f3fff 	movt	r3, #65535	; 0xffff
    1748:	e1c230b0 	strh	r3, [r2]
    174c:	e3003af8 	movw	r3, #2808	; 0xaf8
    1750:	e34f3fff 	movt	r3, #65535	; 0xffff
    1754:	e3002b9c 	movw	r2, #2972	; 0xb9c
    1758:	e24b1004 	sub	r1, r11, #4
    175c:	e0813003 	add	r3, r1, r3
    1760:	e0832002 	add	r2, r3, r2
    1764:	e30b3724 	movw	r3, #46884	; 0xb724
    1768:	e34f3fff 	movt	r3, #65535	; 0xffff
    176c:	e1c230b0 	strh	r3, [r2]
    1770:	e3003af8 	movw	r3, #2808	; 0xaf8
    1774:	e34f3fff 	movt	r3, #65535	; 0xffff
    1778:	e3002b9e 	movw	r2, #2974	; 0xb9e
    177c:	e24b1004 	sub	r1, r11, #4
    1780:	e0813003 	add	r3, r1, r3
    1784:	e0832002 	add	r2, r3, r2
    1788:	e30b3724 	movw	r3, #46884	; 0xb724
    178c:	e34f3fff 	movt	r3, #65535	; 0xffff
    1790:	e1c230b0 	strh	r3, [r2]
    1794:	e3003af8 	movw	r3, #2808	; 0xaf8
    1798:	e34f3fff 	movt	r3, #65535	; 0xffff
    179c:	e3a02eba 	mov	r2, #2976	; 0xba0
    17a0:	e24b1004 	sub	r1, r11, #4
    17a4:	e0813003 	add	r3, r1, r3
    17a8:	e0832002 	add	r2, r3, r2
    17ac:	e30b3724 	movw	r3, #46884	; 0xb724
    17b0:	e34f3fff 	movt	r3, #65535	; 0xffff
    17b4:	e1c230b0 	strh	r3, [r2]
    17b8:	e3003af8 	movw	r3, #2808	; 0xaf8
    17bc:	e34f3fff 	movt	r3, #65535	; 0xffff
    17c0:	e3002ba2 	movw	r2, #2978	; 0xba2
    17c4:	e24b1004 	sub	r1, r11, #4
    17c8:	e0813003 	add	r3, r1, r3
    17cc:	e0833002 	add	r3, r3, r2
    17d0:	e3e0207f 	mvn	r2, #127	; 0x7f
    17d4:	e1c320b0 	strh	r2, [r3]
    17d8:	e3003af8 	movw	r3, #2808	; 0xaf8
    17dc:	e34f3fff 	movt	r3, #65535	; 0xffff
    17e0:	e3002ba4 	movw	r2, #2980	; 0xba4
    17e4:	e24b1004 	sub	r1, r11, #4
    17e8:	e0813003 	add	r3, r1, r3
    17ec:	e0833002 	add	r3, r3, r2
    17f0:	e3e0207f 	mvn	r2, #127	; 0x7f
    17f4:	e1c320b0 	strh	r2, [r3]
    17f8:	e3003af8 	movw	r3, #2808	; 0xaf8
    17fc:	e34f3fff 	movt	r3, #65535	; 0xffff
    1800:	e3002be4 	movw	r2, #3044	; 0xbe4
    1804:	e24b1004 	sub	r1, r11, #4
    1808:	e0813003 	add	r3, r1, r3
    180c:	e0833002 	add	r3, r3, r2
    1810:	e3e0207f 	mvn	r2, #127	; 0x7f
    1814:	e1c320b0 	strh	r2, [r3]
    1818:	e3003af8 	movw	r3, #2808	; 0xaf8
    181c:	e34f3fff 	movt	r3, #65535	; 0xffff
    1820:	e3002be6 	movw	r2, #3046	; 0xbe6
    1824:	e24b1004 	sub	r1, r11, #4
    1828:	e0813003 	add	r3, r1, r3
    182c:	e0833002 	add	r3, r3, r2
    1830:	e3e0207f 	mvn	r2, #127	; 0x7f
    1834:	e1c320b0 	strh	r2, [r3]
    1838:	e3003af8 	movw	r3, #2808	; 0xaf8
    183c:	e34f3fff 	movt	r3, #65535	; 0xffff
    1840:	e3002c5e 	movw	r2, #3166	; 0xc5e
    1844:	e24b1004 	sub	r1, r11, #4
    1848:	e0813003 	add	r3, r1, r3
    184c:	e0832002 	add	r2, r3, r2
    1850:	e30b3724 	movw	r3, #46884	; 0xb724
    1854:	e34f3fff 	movt	r3, #65535	; 0xffff
    1858:	e1c230b0 	strh	r3, [r2]
    185c:	e3003af8 	movw	r3, #2808	; 0xaf8
    1860:	e34f3fff 	movt	r3, #65535	; 0xffff
    1864:	e3a02ec6 	mov	r2, #3168	; 0xc60
    1868:	e24b1004 	sub	r1, r11, #4
    186c:	e0813003 	add	r3, r1, r3
    1870:	e0832002 	add	r2, r3, r2
    1874:	e30b3724 	movw	r3, #46884	; 0xb724
    1878:	e34f3fff 	movt	r3, #65535	; 0xffff
    187c:	e1c230b0 	strh	r3, [r2]
    1880:	e3003af8 	movw	r3, #2808	; 0xaf8
    1884:	e34f3fff 	movt	r3, #65535	; 0xffff
    1888:	e3002c62 	movw	r2, #3170	; 0xc62
    188c:	e24b1004 	sub	r1, r11, #4
    1890:	e0813003 	add	r3, r1, r3
    1894:	e0832002 	add	r2, r3, r2
    1898:	e30b3724 	movw	r3, #46884	; 0xb724
    189c:	e34f3fff 	movt	r3, #65535	; 0xffff
    18a0:	e1c230b0 	strh	r3, [r2]
    18a4:	e3003af8 	movw	r3, #2808	; 0xaf8
    18a8:	e34f3fff 	movt	r3, #65535	; 0xffff
    18ac:	e3002c64 	movw	r2, #3172	; 0xc64
    18b0:	e24b1004 	sub	r1, r11, #4
    18b4:	e0813003 	add	r3, r1, r3
    18b8:	e0832002 	add	r2, r3, r2
    18bc:	e30b3724 	movw	r3, #46884	; 0xb724
    18c0:	e34f3fff 	movt	r3, #65535	; 0xffff
    18c4:	e1c230b0 	strh	r3, [r2]
    18c8:	e3003af8 	movw	r3, #2808	; 0xaf8
    18cc:	e34f3fff 	movt	r3, #65535	; 0xffff
    18d0:	e3002caa 	movw	r2, #3242	; 0xcaa
    18d4:	e24b1004 	sub	r1, r11, #4
    18d8:	e0813003 	add	r3, r1, r3
    18dc:	e0833002 	add	r3, r3, r2
    18e0:	e3e0207f 	mvn	r2, #127	; 0x7f
    18e4:	e1c320b0 	strh	r2, [r3]
    18e8:	e3003af8 	movw	r3, #2808	; 0xaf8
    18ec:	e34f3fff 	movt	r3, #65535	; 0xffff
    18f0:	e3002cac 	movw	r2, #3244	; 0xcac
    18f4:	e24b1004 	sub	r1, r11, #4
    18f8:	e0813003 	add	r3, r1, r3
    18fc:	e0833002 	add	r3, r3, r2
    1900:	e3e0207f 	mvn	r2, #127	; 0x7f
    1904:	e1c320b0 	strh	r2, [r3]
    1908:	e3003af8 	movw	r3, #2808	; 0xaf8
    190c:	e34f3fff 	movt	r3, #65535	; 0xffff
    1910:	e3002cae 	movw	r2, #3246	; 0xcae
    1914:	e24b1004 	sub	r1, r11, #4
    1918:	e0813003 	add	r3, r1, r3
    191c:	e0833002 	add	r3, r3, r2
    1920:	e3e0207f 	mvn	r2, #127	; 0x7f
    1924:	e1c320b0 	strh	r2, [r3]
    1928:	e3003af8 	movw	r3, #2808	; 0xaf8
    192c:	e34f3fff 	movt	r3, #65535	; 0xffff
    1930:	e3002d24 	movw	r2, #3364	; 0xd24
    1934:	e24b1004 	sub	r1, r11, #4
    1938:	e0813003 	add	r3, r1, r3
    193c:	e0832002 	add	r2, r3, r2
    1940:	e30b3724 	movw	r3, #46884	; 0xb724
    1944:	e34f3fff 	movt	r3, #65535	; 0xffff
    1948:	e1c230b0 	strh	r3, [r2]
    194c:	e3003af8 	movw	r3, #2808	; 0xaf8
    1950:	e34f3fff 	movt	r3, #65535	; 0xffff
    1954:	e3002d26 	movw	r2, #3366	; 0xd26
    1958:	e24b1004 	sub	r1, r11, #4
    195c:	e0813003 	add	r3, r1, r3
    1960:	e0832002 	add	r2, r3, r2
    1964:	e30b3724 	movw	r3, #46884	; 0xb724
    1968:	e34f3fff 	movt	r3, #65535	; 0xffff
    196c:	e1c230b0 	strh	r3, [r2]
    1970:	e3003af8 	movw	r3, #2808	; 0xaf8
    1974:	e34f3fff 	movt	r3, #65535	; 0xffff
    1978:	e3002d28 	movw	r2, #3368	; 0xd28
    197c:	e24b1004 	sub	r1, r11, #4
    1980:	e0813003 	add	r3, r1, r3
    1984:	e0833002 	add	r3, r3, r2
    1988:	e3e0207f 	mvn	r2, #127	; 0x7f
    198c:	e1c320b0 	strh	r2, [r3]
    1990:	e3003af8 	movw	r3, #2808	; 0xaf8
    1994:	e34f3fff 	movt	r3, #65535	; 0xffff
    1998:	e3002d72 	movw	r2, #3442	; 0xd72
    199c:	e24b1004 	sub	r1, r11, #4
    19a0:	e0813003 	add	r3, r1, r3
    19a4:	e0833002 	add	r3, r3, r2
    19a8:	e3e0207f 	mvn	r2, #127	; 0x7f
    19ac:	e1c320b0 	strh	r2, [r3]
    19b0:	e3003af8 	movw	r3, #2808	; 0xaf8
    19b4:	e34f3fff 	movt	r3, #65535	; 0xffff
    19b8:	e3002dec 	movw	r2, #3564	; 0xdec
    19bc:	e24b1004 	sub	r1, r11, #4
    19c0:	e0813003 	add	r3, r1, r3
    19c4:	e0833002 	add	r3, r3, r2
    19c8:	e3e0207f 	mvn	r2, #127	; 0x7f
    19cc:	e1c320b0 	strh	r2, [r3]
    19d0:	e3003af8 	movw	r3, #2808	; 0xaf8
    19d4:	e34f3fff 	movt	r3, #65535	; 0xffff
    19d8:	e3002e38 	movw	r2, #3640	; 0xe38
    19dc:	e24b1004 	sub	r1, r11, #4
    19e0:	e0813003 	add	r3, r1, r3
    19e4:	e0833002 	add	r3, r3, r2
    19e8:	e3e0207f 	mvn	r2, #127	; 0x7f
    19ec:	e1c320b0 	strh	r2, [r3]
    19f0:	e3003af8 	movw	r3, #2808	; 0xaf8
    19f4:	e34f3fff 	movt	r3, #65535	; 0xffff
    19f8:	e3002e3a 	movw	r2, #3642	; 0xe3a
    19fc:	e24b1004 	sub	r1, r11, #4
    1a00:	e0813003 	add	r3, r1, r3
    1a04:	e0833002 	add	r3, r3, r2
    1a08:	e3e0207f 	mvn	r2, #127	; 0x7f
    1a0c:	e1c320b0 	strh	r2, [r3]
    1a10:	e3003af8 	movw	r3, #2808	; 0xaf8
    1a14:	e34f3fff 	movt	r3, #65535	; 0xffff
    1a18:	e3a02eeb 	mov	r2, #3760	; 0xeb0
    1a1c:	e24b1004 	sub	r1, r11, #4
    1a20:	e0813003 	add	r3, r1, r3
    1a24:	e0833002 	add	r3, r3, r2
    1a28:	e3e0207f 	mvn	r2, #127	; 0x7f
    1a2c:	e1c320b0 	strh	r2, [r3]
    1a30:	e3003af8 	movw	r3, #2808	; 0xaf8
    1a34:	e34f3fff 	movt	r3, #65535	; 0xffff
    1a38:	e3002efe 	movw	r2, #3838	; 0xefe
    1a3c:	e24b1004 	sub	r1, r11, #4
    1a40:	e0813003 	add	r3, r1, r3
    1a44:	e0833002 	add	r3, r3, r2
    1a48:	e3e0207f 	mvn	r2, #127	; 0x7f
    1a4c:	e1c320b0 	strh	r2, [r3]
    1a50:	e3003af8 	movw	r3, #2808	; 0xaf8
    1a54:	e34f3fff 	movt	r3, #65535	; 0xffff
    1a58:	e3002f74 	movw	r2, #3956	; 0xf74
    1a5c:	e24b1004 	sub	r1, r11, #4
    1a60:	e0813003 	add	r3, r1, r3
    1a64:	e0833002 	add	r3, r3, r2
    1a68:	e3e0207f 	mvn	r2, #127	; 0x7f
    1a6c:	e1c320b0 	strh	r2, [r3]
    1a70:	e3003af8 	movw	r3, #2808	; 0xaf8
    1a74:	e34f3fff 	movt	r3, #65535	; 0xffff
    1a78:	e3002fc4 	movw	r2, #4036	; 0xfc4
    1a7c:	e24b1004 	sub	r1, r11, #4
    1a80:	e0813003 	add	r3, r1, r3
    1a84:	e0833002 	add	r3, r3, r2
    1a88:	e3e0207f 	mvn	r2, #127	; 0x7f
    1a8c:	e1c320b0 	strh	r2, [r3]
    1a90:	e3003af8 	movw	r3, #2808	; 0xaf8
    1a94:	e34f3fff 	movt	r3, #65535	; 0xffff
    1a98:	e3002fc6 	movw	r2, #4038	; 0xfc6
    1a9c:	e24b1004 	sub	r1, r11, #4
    1aa0:	e0813003 	add	r3, r1, r3
    1aa4:	e0833002 	add	r3, r3, r2
    1aa8:	e3e0207f 	mvn	r2, #127	; 0x7f
    1aac:	e1c320b0 	strh	r2, [r3]
    1ab0:	e3003af8 	movw	r3, #2808	; 0xaf8
    1ab4:	e34f3fff 	movt	r3, #65535	; 0xffff
    1ab8:	e3012038 	movw	r2, #4152	; 0x1038
    1abc:	e24b1004 	sub	r1, r11, #4
    1ac0:	e0813003 	add	r3, r1, r3
    1ac4:	e0833002 	add	r3, r3, r2
    1ac8:	e3e0207f 	mvn	r2, #127	; 0x7f
    1acc:	e1c320b0 	strh	r2, [r3]
    1ad0:	e3003af8 	movw	r3, #2808	; 0xaf8
    1ad4:	e34f3fff 	movt	r3, #65535	; 0xffff
    1ad8:	e301208a 	movw	r2, #4234	; 0x108a
    1adc:	e24b1004 	sub	r1, r11, #4
    1ae0:	e0813003 	add	r3, r1, r3
    1ae4:	e0833002 	add	r3, r3, r2
    1ae8:	e3e0207f 	mvn	r2, #127	; 0x7f
    1aec:	e1c320b0 	strh	r2, [r3]
    1af0:	e3003af8 	movw	r3, #2808	; 0xaf8
    1af4:	e34f3fff 	movt	r3, #65535	; 0xffff
    1af8:	e30120fc 	movw	r2, #4348	; 0x10fc
    1afc:	e24b1004 	sub	r1, r11, #4
    1b00:	e0813003 	add	r3, r1, r3
    1b04:	e0833002 	add	r3, r3, r2
    1b08:	e3e0207f 	mvn	r2, #127	; 0x7f
    1b0c:	e1c320b0 	strh	r2, [r3]
    1b10:	e3003af8 	movw	r3, #2808	; 0xaf8
    1b14:	e34f3fff 	movt	r3, #65535	; 0xffff
    1b18:	e3012150 	movw	r2, #4432	; 0x1150
    1b1c:	e24b1004 	sub	r1, r11, #4
    1b20:	e0813003 	add	r3, r1, r3
    1b24:	e0833002 	add	r3, r3, r2
    1b28:	e3e0207f 	mvn	r2, #127	; 0x7f
    1b2c:	e1c320b0 	strh	r2, [r3]
    1b30:	e3003af8 	movw	r3, #2808	; 0xaf8
    1b34:	e34f3fff 	movt	r3, #65535	; 0xffff
    1b38:	e3012152 	movw	r2, #4434	; 0x1152
    1b3c:	e24b1004 	sub	r1, r11, #4
    1b40:	e0813003 	add	r3, r1, r3
    1b44:	e0833002 	add	r3, r3, r2
    1b48:	e3e0207f 	mvn	r2, #127	; 0x7f
    1b4c:	e1c320b0 	strh	r2, [r3]
    1b50:	e3003af8 	movw	r3, #2808	; 0xaf8
    1b54:	e34f3fff 	movt	r3, #65535	; 0xffff
    1b58:	e3a02d47 	mov	r2, #4544	; 0x11c0
    1b5c:	e24b1004 	sub	r1, r11, #4
    1b60:	e0813003 	add	r3, r1, r3
    1b64:	e0833002 	add	r3, r3, r2
    1b68:	e3e0207f 	mvn	r2, #127	; 0x7f
    1b6c:	e1c320b0 	strh	r2, [r3]
    1b70:	e3003af8 	movw	r3, #2808	; 0xaf8
    1b74:	e34f3fff 	movt	r3, #65535	; 0xffff
    1b78:	e3012216 	movw	r2, #4630	; 0x1216
    1b7c:	e24b1004 	sub	r1, r11, #4
    1b80:	e0813003 	add	r3, r1, r3
    1b84:	e0833002 	add	r3, r3, r2
    1b88:	e3e0207f 	mvn	r2, #127	; 0x7f
    1b8c:	e1c320b0 	strh	r2, [r3]
    1b90:	e3003af8 	movw	r3, #2808	; 0xaf8
    1b94:	e34f3fff 	movt	r3, #65535	; 0xffff
    1b98:	e3012284 	movw	r2, #4740	; 0x1284
    1b9c:	e24b1004 	sub	r1, r11, #4
    1ba0:	e0813003 	add	r3, r1, r3
    1ba4:	e0833002 	add	r3, r3, r2
    1ba8:	e3e0207f 	mvn	r2, #127	; 0x7f
    1bac:	e1c320b0 	strh	r2, [r3]
    1bb0:	e3003af8 	movw	r3, #2808	; 0xaf8
    1bb4:	e34f3fff 	movt	r3, #65535	; 0xffff
    1bb8:	e3012294 	movw	r2, #4756	; 0x1294
    1bbc:	e24b1004 	sub	r1, r11, #4
    1bc0:	e0813003 	add	r3, r1, r3
    1bc4:	e0832002 	add	r2, r3, r2
    1bc8:	e30e38e4 	movw	r3, #59620	; 0xe8e4
    1bcc:	e34f3fff 	movt	r3, #65535	; 0xffff
    1bd0:	e1c230b0 	strh	r3, [r2]
    1bd4:	e3003af8 	movw	r3, #2808	; 0xaf8
    1bd8:	e34f3fff 	movt	r3, #65535	; 0xffff
    1bdc:	e3012296 	movw	r2, #4758	; 0x1296
    1be0:	e24b1004 	sub	r1, r11, #4
    1be4:	e0813003 	add	r3, r1, r3
    1be8:	e0832002 	add	r2, r3, r2
    1bec:	e30e38e4 	movw	r3, #59620	; 0xe8e4
    1bf0:	e34f3fff 	movt	r3, #65535	; 0xffff
    1bf4:	e1c230b0 	strh	r3, [r2]
    1bf8:	e3003af8 	movw	r3, #2808	; 0xaf8
    1bfc:	e34f3fff 	movt	r3, #65535	; 0xffff
    1c00:	e3012298 	movw	r2, #4760	; 0x1298
    1c04:	e24b1004 	sub	r1, r11, #4
    1c08:	e0813003 	add	r3, r1, r3
    1c0c:	e0832002 	add	r2, r3, r2
    1c10:	e30e38e4 	movw	r3, #59620	; 0xe8e4
    1c14:	e34f3fff 	movt	r3, #65535	; 0xffff
    1c18:	e1c230b0 	strh	r3, [r2]
    1c1c:	e3003af8 	movw	r3, #2808	; 0xaf8
    1c20:	e34f3fff 	movt	r3, #65535	; 0xffff
    1c24:	e301229a 	movw	r2, #4762	; 0x129a
    1c28:	e24b1004 	sub	r1, r11, #4
    1c2c:	e0813003 	add	r3, r1, r3
    1c30:	e0832002 	add	r2, r3, r2
    1c34:	e30e38e4 	movw	r3, #59620	; 0xe8e4
    1c38:	e34f3fff 	movt	r3, #65535	; 0xffff
    1c3c:	e1c230b0 	strh	r3, [r2]
    1c40:	e3003af8 	movw	r3, #2808	; 0xaf8
    1c44:	e34f3fff 	movt	r3, #65535	; 0xffff
    1c48:	e301229c 	movw	r2, #4764	; 0x129c
    1c4c:	e24b1004 	sub	r1, r11, #4
    1c50:	e0813003 	add	r3, r1, r3
    1c54:	e0832002 	add	r2, r3, r2
    1c58:	e30e38e4 	movw	r3, #59620	; 0xe8e4
    1c5c:	e34f3fff 	movt	r3, #65535	; 0xffff
    1c60:	e1c230b0 	strh	r3, [r2]
    1c64:	e3003af8 	movw	r3, #2808	; 0xaf8
    1c68:	e34f3fff 	movt	r3, #65535	; 0xffff
    1c6c:	e301229e 	movw	r2, #4766	; 0x129e
    1c70:	e24b1004 	sub	r1, r11, #4
    1c74:	e0813003 	add	r3, r1, r3
    1c78:	e0832002 	add	r2, r3, r2
    1c7c:	e30e38e4 	movw	r3, #59620	; 0xe8e4
    1c80:	e34f3fff 	movt	r3, #65535	; 0xffff
    1c84:	e1c230b0 	strh	r3, [r2]
    1c88:	e3003af8 	movw	r3, #2808	; 0xaf8
    1c8c:	e34f3fff 	movt	r3, #65535	; 0xffff
    1c90:	e30122a0 	movw	r2, #4768	; 0x12a0
    1c94:	e24b1004 	sub	r1, r11, #4
    1c98:	e0813003 	add	r3, r1, r3
    1c9c:	e0832002 	add	r2, r3, r2
    1ca0:	e30e38e4 	movw	r3, #59620	; 0xe8e4
    1ca4:	e34f3fff 	movt	r3, #65535	; 0xffff
    1ca8:	e1c230b0 	strh	r3, [r2]
    1cac:	e3003af8 	movw	r3, #2808	; 0xaf8
    1cb0:	e34f3fff 	movt	r3, #65535	; 0xffff
    1cb4:	e30122a2 	movw	r2, #4770	; 0x12a2
    1cb8:	e24b1004 	sub	r1, r11, #4
    1cbc:	e0813003 	add	r3, r1, r3
    1cc0:	e0832002 	add	r2, r3, r2
    1cc4:	e30e38e4 	movw	r3, #59620	; 0xe8e4
    1cc8:	e34f3fff 	movt	r3, #65535	; 0xffff
    1ccc:	e1c230b0 	strh	r3, [r2]
    1cd0:	e3003af8 	movw	r3, #2808	; 0xaf8
    1cd4:	e34f3fff 	movt	r3, #65535	; 0xffff
    1cd8:	e30122a4 	movw	r2, #4772	; 0x12a4
    1cdc:	e24b1004 	sub	r1, r11, #4
    1ce0:	e0813003 	add	r3, r1, r3
    1ce4:	e0832002 	add	r2, r3, r2
    1ce8:	e30e38e4 	movw	r3, #59620	; 0xe8e4
    1cec:	e34f3fff 	movt	r3, #65535	; 0xffff
    1cf0:	e1c230b0 	strh	r3, [r2]
    1cf4:	e3003af8 	movw	r3, #2808	; 0xaf8
    1cf8:	e34f3fff 	movt	r3, #65535	; 0xffff
    1cfc:	e30122a6 	movw	r2, #4774	; 0x12a6
    1d00:	e24b1004 	sub	r1, r11, #4
    1d04:	e0813003 	add	r3, r1, r3
    1d08:	e0832002 	add	r2, r3, r2
    1d0c:	e30e38e4 	movw	r3, #59620	; 0xe8e4
    1d10:	e34f3fff 	movt	r3, #65535	; 0xffff
    1d14:	e1c230b0 	strh	r3, [r2]
    1d18:	e3003af8 	movw	r3, #2808	; 0xaf8
    1d1c:	e34f3fff 	movt	r3, #65535	; 0xffff
    1d20:	e30122a8 	movw	r2, #4776	; 0x12a8
    1d24:	e24b1004 	sub	r1, r11, #4
    1d28:	e0813003 	add	r3, r1, r3
    1d2c:	e0832002 	add	r2, r3, r2
    1d30:	e30e38e4 	movw	r3, #59620	; 0xe8e4
    1d34:	e34f3fff 	movt	r3, #65535	; 0xffff
    1d38:	e1c230b0 	strh	r3, [r2]
    1d3c:	e3003af8 	movw	r3, #2808	; 0xaf8
    1d40:	e34f3fff 	movt	r3, #65535	; 0xffff
    1d44:	e30122aa 	movw	r2, #4778	; 0x12aa
    1d48:	e24b1004 	sub	r1, r11, #4
    1d4c:	e0813003 	add	r3, r1, r3
    1d50:	e0832002 	add	r2, r3, r2
    1d54:	e30e38e4 	movw	r3, #59620	; 0xe8e4
    1d58:	e34f3fff 	movt	r3, #65535	; 0xffff
    1d5c:	e1c230b0 	strh	r3, [r2]
    1d60:	e3003af8 	movw	r3, #2808	; 0xaf8
    1d64:	e34f3fff 	movt	r3, #65535	; 0xffff
    1d68:	e30122ac 	movw	r2, #4780	; 0x12ac
    1d6c:	e24b1004 	sub	r1, r11, #4
    1d70:	e0813003 	add	r3, r1, r3
    1d74:	e0832002 	add	r2, r3, r2
    1d78:	e30e38e4 	movw	r3, #59620	; 0xe8e4
    1d7c:	e34f3fff 	movt	r3, #65535	; 0xffff
    1d80:	e1c230b0 	strh	r3, [r2]
    1d84:	e3003af8 	movw	r3, #2808	; 0xaf8
    1d88:	e34f3fff 	movt	r3, #65535	; 0xffff
    1d8c:	e30122ae 	movw	r2, #4782	; 0x12ae
    1d90:	e24b1004 	sub	r1, r11, #4
    1d94:	e0813003 	add	r3, r1, r3
    1d98:	e0832002 	add	r2, r3, r2
    1d9c:	e30e38e4 	movw	r3, #59620	; 0xe8e4
    1da0:	e34f3fff 	movt	r3, #65535	; 0xffff
    1da4:	e1c230b0 	strh	r3, [r2]
    1da8:	e3003af8 	movw	r3, #2808	; 0xaf8
    1dac:	e34f3fff 	movt	r3, #65535	; 0xffff
    1db0:	e30122b0 	movw	r2, #4784	; 0x12b0
    1db4:	e24b1004 	sub	r1, r11, #4
    1db8:	e0813003 	add	r3, r1, r3
    1dbc:	e0832002 	add	r2, r3, r2
    1dc0:	e30e38e4 	movw	r3, #59620	; 0xe8e4
    1dc4:	e34f3fff 	movt	r3, #65535	; 0xffff
    1dc8:	e1c230b0 	strh	r3, [r2]
    1dcc:	e3003af8 	movw	r3, #2808	; 0xaf8
    1dd0:	e34f3fff 	movt	r3, #65535	; 0xffff
    1dd4:	e30122b2 	movw	r2, #4786	; 0x12b2
    1dd8:	e24b1004 	sub	r1, r11, #4
    1ddc:	e0813003 	add	r3, r1, r3
    1de0:	e0832002 	add	r2, r3, r2
    1de4:	e30e38e4 	movw	r3, #59620	; 0xe8e4
    1de8:	e34f3fff 	movt	r3, #65535	; 0xffff
    1dec:	e1c230b0 	strh	r3, [r2]
    1df0:	e3003af8 	movw	r3, #2808	; 0xaf8
    1df4:	e34f3fff 	movt	r3, #65535	; 0xffff
    1df8:	e30122b4 	movw	r2, #4788	; 0x12b4
    1dfc:	e24b1004 	sub	r1, r11, #4
    1e00:	e0813003 	add	r3, r1, r3
    1e04:	e0832002 	add	r2, r3, r2
    1e08:	e30e38e4 	movw	r3, #59620	; 0xe8e4
    1e0c:	e34f3fff 	movt	r3, #65535	; 0xffff
    1e10:	e1c230b0 	strh	r3, [r2]
    1e14:	e3003af8 	movw	r3, #2808	; 0xaf8
    1e18:	e34f3fff 	movt	r3, #65535	; 0xffff
    1e1c:	e30122b6 	movw	r2, #4790	; 0x12b6
    1e20:	e24b1004 	sub	r1, r11, #4
    1e24:	e0813003 	add	r3, r1, r3
    1e28:	e0832002 	add	r2, r3, r2
    1e2c:	e30e38e4 	movw	r3, #59620	; 0xe8e4
    1e30:	e34f3fff 	movt	r3, #65535	; 0xffff
    1e34:	e1c230b0 	strh	r3, [r2]
    1e38:	e3003af8 	movw	r3, #2808	; 0xaf8
    1e3c:	e34f3fff 	movt	r3, #65535	; 0xffff
    1e40:	e30122b8 	movw	r2, #4792	; 0x12b8
    1e44:	e24b1004 	sub	r1, r11, #4
    1e48:	e0813003 	add	r3, r1, r3
    1e4c:	e0832002 	add	r2, r3, r2
    1e50:	e30e38e4 	movw	r3, #59620	; 0xe8e4
    1e54:	e34f3fff 	movt	r3, #65535	; 0xffff
    1e58:	e1c230b0 	strh	r3, [r2]
    1e5c:	e3003af8 	movw	r3, #2808	; 0xaf8
    1e60:	e34f3fff 	movt	r3, #65535	; 0xffff
    1e64:	e30122ba 	movw	r2, #4794	; 0x12ba
    1e68:	e24b1004 	sub	r1, r11, #4
    1e6c:	e0813003 	add	r3, r1, r3
    1e70:	e0832002 	add	r2, r3, r2
    1e74:	e30e38e4 	movw	r3, #59620	; 0xe8e4
    1e78:	e34f3fff 	movt	r3, #65535	; 0xffff
    1e7c:	e1c230b0 	strh	r3, [r2]
    1e80:	e3003af8 	movw	r3, #2808	; 0xaf8
    1e84:	e34f3fff 	movt	r3, #65535	; 0xffff
    1e88:	e30122bc 	movw	r2, #4796	; 0x12bc
    1e8c:	e24b1004 	sub	r1, r11, #4
    1e90:	e0813003 	add	r3, r1, r3
    1e94:	e0832002 	add	r2, r3, r2
    1e98:	e30e38e4 	movw	r3, #59620	; 0xe8e4
    1e9c:	e34f3fff 	movt	r3, #65535	; 0xffff
    1ea0:	e1c230b0 	strh	r3, [r2]
    1ea4:	e3003af8 	movw	r3, #2808	; 0xaf8
    1ea8:	e34f3fff 	movt	r3, #65535	; 0xffff
    1eac:	e30122be 	movw	r2, #4798	; 0x12be
    1eb0:	e24b1004 	sub	r1, r11, #4
    1eb4:	e0813003 	add	r3, r1, r3
    1eb8:	e0832002 	add	r2, r3, r2
    1ebc:	e30e38e4 	movw	r3, #59620	; 0xe8e4
    1ec0:	e34f3fff 	movt	r3, #65535	; 0xffff
    1ec4:	e1c230b0 	strh	r3, [r2]
    1ec8:	e3003af8 	movw	r3, #2808	; 0xaf8
    1ecc:	e34f3fff 	movt	r3, #65535	; 0xffff
    1ed0:	e3a02d4b 	mov	r2, #4800	; 0x12c0
    1ed4:	e24b1004 	sub	r1, r11, #4
    1ed8:	e0813003 	add	r3, r1, r3
    1edc:	e0832002 	add	r2, r3, r2
    1ee0:	e30e38e4 	movw	r3, #59620	; 0xe8e4
    1ee4:	e34f3fff 	movt	r3, #65535	; 0xffff
    1ee8:	e1c230b0 	strh	r3, [r2]
    1eec:	e3003af8 	movw	r3, #2808	; 0xaf8
    1ef0:	e34f3fff 	movt	r3, #65535	; 0xffff
    1ef4:	e30122c2 	movw	r2, #4802	; 0x12c2
    1ef8:	e24b1004 	sub	r1, r11, #4
    1efc:	e0813003 	add	r3, r1, r3
    1f00:	e0832002 	add	r2, r3, r2
    1f04:	e30e38e4 	movw	r3, #59620	; 0xe8e4
    1f08:	e34f3fff 	movt	r3, #65535	; 0xffff
    1f0c:	e1c230b0 	strh	r3, [r2]
    1f10:	e3003af8 	movw	r3, #2808	; 0xaf8
    1f14:	e34f3fff 	movt	r3, #65535	; 0xffff
    1f18:	e30122c4 	movw	r2, #4804	; 0x12c4
    1f1c:	e24b1004 	sub	r1, r11, #4
    1f20:	e0813003 	add	r3, r1, r3
    1f24:	e0832002 	add	r2, r3, r2
    1f28:	e30e38e4 	movw	r3, #59620	; 0xe8e4
    1f2c:	e34f3fff 	movt	r3, #65535	; 0xffff
    1f30:	e1c230b0 	strh	r3, [r2]
    1f34:	e3003af8 	movw	r3, #2808	; 0xaf8
    1f38:	e34f3fff 	movt	r3, #65535	; 0xffff
    1f3c:	e30122c6 	movw	r2, #4806	; 0x12c6
    1f40:	e24b1004 	sub	r1, r11, #4
    1f44:	e0813003 	add	r3, r1, r3
    1f48:	e0832002 	add	r2, r3, r2
    1f4c:	e30e38e4 	movw	r3, #59620	; 0xe8e4
    1f50:	e34f3fff 	movt	r3, #65535	; 0xffff
    1f54:	e1c230b0 	strh	r3, [r2]
    1f58:	e3003af8 	movw	r3, #2808	; 0xaf8
    1f5c:	e34f3fff 	movt	r3, #65535	; 0xffff
    1f60:	e30122c8 	movw	r2, #4808	; 0x12c8
    1f64:	e24b1004 	sub	r1, r11, #4
    1f68:	e0813003 	add	r3, r1, r3
    1f6c:	e0832002 	add	r2, r3, r2
    1f70:	e30e38e4 	movw	r3, #59620	; 0xe8e4
    1f74:	e34f3fff 	movt	r3, #65535	; 0xffff
    1f78:	e1c230b0 	strh	r3, [r2]
    1f7c:	e3003af8 	movw	r3, #2808	; 0xaf8
    1f80:	e34f3fff 	movt	r3, #65535	; 0xffff
    1f84:	e30122da 	movw	r2, #4826	; 0x12da
    1f88:	e24b1004 	sub	r1, r11, #4
    1f8c:	e0813003 	add	r3, r1, r3
    1f90:	e0833002 	add	r3, r3, r2
    1f94:	e3e0207f 	mvn	r2, #127	; 0x7f
    1f98:	e1c320b0 	strh	r2, [r3]
    1f9c:	e3003af8 	movw	r3, #2808	; 0xaf8
    1fa0:	e34f3fff 	movt	r3, #65535	; 0xffff
    1fa4:	e3012348 	movw	r2, #4936	; 0x1348
    1fa8:	e24b1004 	sub	r1, r11, #4
    1fac:	e0813003 	add	r3, r1, r3
    1fb0:	e0833002 	add	r3, r3, r2
    1fb4:	e3e0207f 	mvn	r2, #127	; 0x7f
    1fb8:	e1c320b0 	strh	r2, [r3]
    1fbc:	e3003af8 	movw	r3, #2808	; 0xaf8
    1fc0:	e34f3fff 	movt	r3, #65535	; 0xffff
    1fc4:	e3012358 	movw	r2, #4952	; 0x1358
    1fc8:	e24b1004 	sub	r1, r11, #4
    1fcc:	e0813003 	add	r3, r1, r3
    1fd0:	e0832002 	add	r2, r3, r2
    1fd4:	e30e38e4 	movw	r3, #59620	; 0xe8e4
    1fd8:	e34f3fff 	movt	r3, #65535	; 0xffff
    1fdc:	e1c230b0 	strh	r3, [r2]
    1fe0:	e3003af8 	movw	r3, #2808	; 0xaf8
    1fe4:	e34f3fff 	movt	r3, #65535	; 0xffff
    1fe8:	e301235a 	movw	r2, #4954	; 0x135a
    1fec:	e24b1004 	sub	r1, r11, #4
    1ff0:	e0813003 	add	r3, r1, r3
    1ff4:	e0832002 	add	r2, r3, r2
    1ff8:	e30e38e4 	movw	r3, #59620	; 0xe8e4
    1ffc:	e34f3fff 	movt	r3, #65535	; 0xffff
    2000:	e1c230b0 	strh	r3, [r2]
    2004:	e3003af8 	movw	r3, #2808	; 0xaf8
    2008:	e34f3fff 	movt	r3, #65535	; 0xffff
    200c:	e301235c 	movw	r2, #4956	; 0x135c
    2010:	e24b1004 	sub	r1, r11, #4
    2014:	e0813003 	add	r3, r1, r3
    2018:	e0832002 	add	r2, r3, r2
    201c:	e30e38e4 	movw	r3, #59620	; 0xe8e4
    2020:	e34f3fff 	movt	r3, #65535	; 0xffff
    2024:	e1c230b0 	strh	r3, [r2]
    2028:	e3003af8 	movw	r3, #2808	; 0xaf8
    202c:	e34f3fff 	movt	r3, #65535	; 0xffff
    2030:	e301235e 	movw	r2, #4958	; 0x135e
    2034:	e24b1004 	sub	r1, r11, #4
    2038:	e0813003 	add	r3, r1, r3
    203c:	e0832002 	add	r2, r3, r2
    2040:	e30e38e4 	movw	r3, #59620	; 0xe8e4
    2044:	e34f3fff 	movt	r3, #65535	; 0xffff
    2048:	e1c230b0 	strh	r3, [r2]
    204c:	e3003af8 	movw	r3, #2808	; 0xaf8
    2050:	e34f3fff 	movt	r3, #65535	; 0xffff
    2054:	e3012360 	movw	r2, #4960	; 0x1360
    2058:	e24b1004 	sub	r1, r11, #4
    205c:	e0813003 	add	r3, r1, r3
    2060:	e0832002 	add	r2, r3, r2
    2064:	e30e38e4 	movw	r3, #59620	; 0xe8e4
    2068:	e34f3fff 	movt	r3, #65535	; 0xffff
    206c:	e1c230b0 	strh	r3, [r2]
    2070:	e3003af8 	movw	r3, #2808	; 0xaf8
    2074:	e34f3fff 	movt	r3, #65535	; 0xffff
    2078:	e3012362 	movw	r2, #4962	; 0x1362
    207c:	e24b1004 	sub	r1, r11, #4
    2080:	e0813003 	add	r3, r1, r3
    2084:	e0832002 	add	r2, r3, r2
    2088:	e30e38e4 	movw	r3, #59620	; 0xe8e4
    208c:	e34f3fff 	movt	r3, #65535	; 0xffff
    2090:	e1c230b0 	strh	r3, [r2]
    2094:	e3003af8 	movw	r3, #2808	; 0xaf8
    2098:	e34f3fff 	movt	r3, #65535	; 0xffff
    209c:	e3012364 	movw	r2, #4964	; 0x1364
    20a0:	e24b1004 	sub	r1, r11, #4
    20a4:	e0813003 	add	r3, r1, r3
    20a8:	e0832002 	add	r2, r3, r2
    20ac:	e30e38e4 	movw	r3, #59620	; 0xe8e4
    20b0:	e34f3fff 	movt	r3, #65535	; 0xffff
    20b4:	e1c230b0 	strh	r3, [r2]
    20b8:	e3003af8 	movw	r3, #2808	; 0xaf8
    20bc:	e34f3fff 	movt	r3, #65535	; 0xffff
    20c0:	e3012366 	movw	r2, #4966	; 0x1366
    20c4:	e24b1004 	sub	r1, r11, #4
    20c8:	e0813003 	add	r3, r1, r3
    20cc:	e0832002 	add	r2, r3, r2
    20d0:	e30e38e4 	movw	r3, #59620	; 0xe8e4
    20d4:	e34f3fff 	movt	r3, #65535	; 0xffff
    20d8:	e1c230b0 	strh	r3, [r2]
    20dc:	e3003af8 	movw	r3, #2808	; 0xaf8
    20e0:	e34f3fff 	movt	r3, #65535	; 0xffff
    20e4:	e3012368 	movw	r2, #4968	; 0x1368
    20e8:	e24b1004 	sub	r1, r11, #4
    20ec:	e0813003 	add	r3, r1, r3
    20f0:	e0832002 	add	r2, r3, r2
    20f4:	e30e38e4 	movw	r3, #59620	; 0xe8e4
    20f8:	e34f3fff 	movt	r3, #65535	; 0xffff
    20fc:	e1c230b0 	strh	r3, [r2]
    2100:	e3003af8 	movw	r3, #2808	; 0xaf8
    2104:	e34f3fff 	movt	r3, #65535	; 0xffff
    2108:	e301236a 	movw	r2, #4970	; 0x136a
    210c:	e24b1004 	sub	r1, r11, #4
    2110:	e0813003 	add	r3, r1, r3
    2114:	e0832002 	add	r2, r3, r2
    2118:	e30e38e4 	movw	r3, #59620	; 0xe8e4
    211c:	e34f3fff 	movt	r3, #65535	; 0xffff
    2120:	e1c230b0 	strh	r3, [r2]
    2124:	e3003af8 	movw	r3, #2808	; 0xaf8
    2128:	e34f3fff 	movt	r3, #65535	; 0xffff
    212c:	e301236c 	movw	r2, #4972	; 0x136c
    2130:	e24b1004 	sub	r1, r11, #4
    2134:	e0813003 	add	r3, r1, r3
    2138:	e0832002 	add	r2, r3, r2
    213c:	e30e38e4 	movw	r3, #59620	; 0xe8e4
    2140:	e34f3fff 	movt	r3, #65535	; 0xffff
    2144:	e1c230b0 	strh	r3, [r2]
    2148:	e3003af8 	movw	r3, #2808	; 0xaf8
    214c:	e34f3fff 	movt	r3, #65535	; 0xffff
    2150:	e301236e 	movw	r2, #4974	; 0x136e
    2154:	e24b1004 	sub	r1, r11, #4
    2158:	e0813003 	add	r3, r1, r3
    215c:	e0832002 	add	r2, r3, r2
    2160:	e30e38e4 	movw	r3, #59620	; 0xe8e4
    2164:	e34f3fff 	movt	r3, #65535	; 0xffff
    2168:	e1c230b0 	strh	r3, [r2]
    216c:	e3003af8 	movw	r3, #2808	; 0xaf8
    2170:	e34f3fff 	movt	r3, #65535	; 0xffff
    2174:	e3012370 	movw	r2, #4976	; 0x1370
    2178:	e24b1004 	sub	r1, r11, #4
    217c:	e0813003 	add	r3, r1, r3
    2180:	e0832002 	add	r2, r3, r2
    2184:	e30e38e4 	movw	r3, #59620	; 0xe8e4
    2188:	e34f3fff 	movt	r3, #65535	; 0xffff
    218c:	e1c230b0 	strh	r3, [r2]
    2190:	e3003af8 	movw	r3, #2808	; 0xaf8
    2194:	e34f3fff 	movt	r3, #65535	; 0xffff
    2198:	e3012372 	movw	r2, #4978	; 0x1372
    219c:	e24b1004 	sub	r1, r11, #4
    21a0:	e0813003 	add	r3, r1, r3
    21a4:	e0832002 	add	r2, r3, r2
    21a8:	e30e38e4 	movw	r3, #59620	; 0xe8e4
    21ac:	e34f3fff 	movt	r3, #65535	; 0xffff
    21b0:	e1c230b0 	strh	r3, [r2]
    21b4:	e3003af8 	movw	r3, #2808	; 0xaf8
    21b8:	e34f3fff 	movt	r3, #65535	; 0xffff
    21bc:	e3012374 	movw	r2, #4980	; 0x1374
    21c0:	e24b1004 	sub	r1, r11, #4
    21c4:	e0813003 	add	r3, r1, r3
    21c8:	e0832002 	add	r2, r3, r2
    21cc:	e30e38e4 	movw	r3, #59620	; 0xe8e4
    21d0:	e34f3fff 	movt	r3, #65535	; 0xffff
    21d4:	e1c230b0 	strh	r3, [r2]
    21d8:	e3003af8 	movw	r3, #2808	; 0xaf8
    21dc:	e34f3fff 	movt	r3, #65535	; 0xffff
    21e0:	e3012376 	movw	r2, #4982	; 0x1376
    21e4:	e24b1004 	sub	r1, r11, #4
    21e8:	e0813003 	add	r3, r1, r3
    21ec:	e0832002 	add	r2, r3, r2
    21f0:	e30e38e4 	movw	r3, #59620	; 0xe8e4
    21f4:	e34f3fff 	movt	r3, #65535	; 0xffff
    21f8:	e1c230b0 	strh	r3, [r2]
    21fc:	e3003af8 	movw	r3, #2808	; 0xaf8
    2200:	e34f3fff 	movt	r3, #65535	; 0xffff
    2204:	e3012378 	movw	r2, #4984	; 0x1378
    2208:	e24b1004 	sub	r1, r11, #4
    220c:	e0813003 	add	r3, r1, r3
    2210:	e0832002 	add	r2, r3, r2
    2214:	e30e38e4 	movw	r3, #59620	; 0xe8e4
    2218:	e34f3fff 	movt	r3, #65535	; 0xffff
    221c:	e1c230b0 	strh	r3, [r2]
    2220:	e3003af8 	movw	r3, #2808	; 0xaf8
    2224:	e34f3fff 	movt	r3, #65535	; 0xffff
    2228:	e301237a 	movw	r2, #4986	; 0x137a
    222c:	e24b1004 	sub	r1, r11, #4
    2230:	e0813003 	add	r3, r1, r3
    2234:	e0832002 	add	r2, r3, r2
    2238:	e30e38e4 	movw	r3, #59620	; 0xe8e4
    223c:	e34f3fff 	movt	r3, #65535	; 0xffff
    2240:	e1c230b0 	strh	r3, [r2]
    2244:	e3003af8 	movw	r3, #2808	; 0xaf8
    2248:	e34f3fff 	movt	r3, #65535	; 0xffff
    224c:	e301237c 	movw	r2, #4988	; 0x137c
    2250:	e24b1004 	sub	r1, r11, #4
    2254:	e0813003 	add	r3, r1, r3
    2258:	e0832002 	add	r2, r3, r2
    225c:	e30e38e4 	movw	r3, #59620	; 0xe8e4
    2260:	e34f3fff 	movt	r3, #65535	; 0xffff
    2264:	e1c230b0 	strh	r3, [r2]
    2268:	e3003af8 	movw	r3, #2808	; 0xaf8
    226c:	e34f3fff 	movt	r3, #65535	; 0xffff
    2270:	e301237e 	movw	r2, #4990	; 0x137e
    2274:	e24b1004 	sub	r1, r11, #4
    2278:	e0813003 	add	r3, r1, r3
    227c:	e0832002 	add	r2, r3, r2
    2280:	e30e38e4 	movw	r3, #59620	; 0xe8e4
    2284:	e34f3fff 	movt	r3, #65535	; 0xffff
    2288:	e1c230b0 	strh	r3, [r2]
    228c:	e3003af8 	movw	r3, #2808	; 0xaf8
    2290:	e34f3fff 	movt	r3, #65535	; 0xffff
    2294:	e3a02d4e 	mov	r2, #4992	; 0x1380
    2298:	e24b1004 	sub	r1, r11, #4
    229c:	e0813003 	add	r3, r1, r3
    22a0:	e0832002 	add	r2, r3, r2
    22a4:	e30e38e4 	movw	r3, #59620	; 0xe8e4
    22a8:	e34f3fff 	movt	r3, #65535	; 0xffff
    22ac:	e1c230b0 	strh	r3, [r2]
    22b0:	e3003af8 	movw	r3, #2808	; 0xaf8
    22b4:	e34f3fff 	movt	r3, #65535	; 0xffff
    22b8:	e3012382 	movw	r2, #4994	; 0x1382
    22bc:	e24b1004 	sub	r1, r11, #4
    22c0:	e0813003 	add	r3, r1, r3
    22c4:	e0832002 	add	r2, r3, r2
    22c8:	e30e38e4 	movw	r3, #59620	; 0xe8e4
    22cc:	e34f3fff 	movt	r3, #65535	; 0xffff
    22d0:	e1c230b0 	strh	r3, [r2]
    22d4:	e3003af8 	movw	r3, #2808	; 0xaf8
    22d8:	e34f3fff 	movt	r3, #65535	; 0xffff
    22dc:	e3012384 	movw	r2, #4996	; 0x1384
    22e0:	e24b1004 	sub	r1, r11, #4
    22e4:	e0813003 	add	r3, r1, r3
    22e8:	e0832002 	add	r2, r3, r2
    22ec:	e30e38e4 	movw	r3, #59620	; 0xe8e4
    22f0:	e34f3fff 	movt	r3, #65535	; 0xffff
    22f4:	e1c230b0 	strh	r3, [r2]
    22f8:	e3003af8 	movw	r3, #2808	; 0xaf8
    22fc:	e34f3fff 	movt	r3, #65535	; 0xffff
    2300:	e3012386 	movw	r2, #4998	; 0x1386
    2304:	e24b1004 	sub	r1, r11, #4
    2308:	e0813003 	add	r3, r1, r3
    230c:	e0832002 	add	r2, r3, r2
    2310:	e30e38e4 	movw	r3, #59620	; 0xe8e4
    2314:	e34f3fff 	movt	r3, #65535	; 0xffff
    2318:	e1c230b0 	strh	r3, [r2]
    231c:	e3003af8 	movw	r3, #2808	; 0xaf8
    2320:	e34f3fff 	movt	r3, #65535	; 0xffff
    2324:	e3012388 	movw	r2, #5000	; 0x1388
    2328:	e24b1004 	sub	r1, r11, #4
    232c:	e0813003 	add	r3, r1, r3
    2330:	e0832002 	add	r2, r3, r2
    2334:	e30e38e4 	movw	r3, #59620	; 0xe8e4
    2338:	e34f3fff 	movt	r3, #65535	; 0xffff
    233c:	e1c230b0 	strh	r3, [r2]
    2340:	e3003af8 	movw	r3, #2808	; 0xaf8
    2344:	e34f3fff 	movt	r3, #65535	; 0xffff
    2348:	e301238a 	movw	r2, #5002	; 0x138a
    234c:	e24b1004 	sub	r1, r11, #4
    2350:	e0813003 	add	r3, r1, r3
    2354:	e0832002 	add	r2, r3, r2
    2358:	e30e38e4 	movw	r3, #59620	; 0xe8e4
    235c:	e34f3fff 	movt	r3, #65535	; 0xffff
    2360:	e1c230b0 	strh	r3, [r2]
    2364:	e3003af8 	movw	r3, #2808	; 0xaf8
    2368:	e34f3fff 	movt	r3, #65535	; 0xffff
    236c:	e301238c 	movw	r2, #5004	; 0x138c
    2370:	e24b1004 	sub	r1, r11, #4
    2374:	e0813003 	add	r3, r1, r3
    2378:	e0832002 	add	r2, r3, r2
    237c:	e30e38e4 	movw	r3, #59620	; 0xe8e4
    2380:	e34f3fff 	movt	r3, #65535	; 0xffff
    2384:	e1c230b0 	strh	r3, [r2]
    2388:	e3003af8 	movw	r3, #2808	; 0xaf8
    238c:	e34f3fff 	movt	r3, #65535	; 0xffff
    2390:	e301239e 	movw	r2, #5022	; 0x139e
    2394:	e24b1004 	sub	r1, r11, #4
    2398:	e0813003 	add	r3, r1, r3
    239c:	e0833002 	add	r3, r3, r2
    23a0:	e3e0207f 	mvn	r2, #127	; 0x7f
    23a4:	e1c320b0 	strh	r2, [r3]
    23a8:	e3003af8 	movw	r3, #2808	; 0xaf8
    23ac:	e34f3fff 	movt	r3, #65535	; 0xffff
    23b0:	e30123b6 	movw	r2, #5046	; 0x13b6
    23b4:	e24b1004 	sub	r1, r11, #4
    23b8:	e0813003 	add	r3, r1, r3
    23bc:	e0832002 	add	r2, r3, r2
    23c0:	e30b3724 	movw	r3, #46884	; 0xb724
    23c4:	e34f3fff 	movt	r3, #65535	; 0xffff
    23c8:	e1c230b0 	strh	r3, [r2]
    23cc:	e3003af8 	movw	r3, #2808	; 0xaf8
    23d0:	e34f3fff 	movt	r3, #65535	; 0xffff
    23d4:	e30123b8 	movw	r2, #5048	; 0x13b8
    23d8:	e24b1004 	sub	r1, r11, #4
    23dc:	e0813003 	add	r3, r1, r3
    23e0:	e0832002 	add	r2, r3, r2
    23e4:	e30b3724 	movw	r3, #46884	; 0xb724
    23e8:	e34f3fff 	movt	r3, #65535	; 0xffff
    23ec:	e1c230b0 	strh	r3, [r2]
    23f0:	e3003af8 	movw	r3, #2808	; 0xaf8
    23f4:	e34f3fff 	movt	r3, #65535	; 0xffff
    23f8:	e301240c 	movw	r2, #5132	; 0x140c
    23fc:	e24b1004 	sub	r1, r11, #4
    2400:	e0813003 	add	r3, r1, r3
    2404:	e0833002 	add	r3, r3, r2
    2408:	e3e0207f 	mvn	r2, #127	; 0x7f
    240c:	e1c320b0 	strh	r2, [r3]
    2410:	e3003af8 	movw	r3, #2808	; 0xaf8
    2414:	e34f3fff 	movt	r3, #65535	; 0xffff
    2418:	e301241c 	movw	r2, #5148	; 0x141c
    241c:	e24b1004 	sub	r1, r11, #4
    2420:	e0813003 	add	r3, r1, r3
    2424:	e0832002 	add	r2, r3, r2
    2428:	e30e38e4 	movw	r3, #59620	; 0xe8e4
    242c:	e34f3fff 	movt	r3, #65535	; 0xffff
    2430:	e1c230b0 	strh	r3, [r2]
    2434:	e3003af8 	movw	r3, #2808	; 0xaf8
    2438:	e34f3fff 	movt	r3, #65535	; 0xffff
    243c:	e301241e 	movw	r2, #5150	; 0x141e
    2440:	e24b1004 	sub	r1, r11, #4
    2444:	e0813003 	add	r3, r1, r3
    2448:	e0832002 	add	r2, r3, r2
    244c:	e30e38e4 	movw	r3, #59620	; 0xe8e4
    2450:	e34f3fff 	movt	r3, #65535	; 0xffff
    2454:	e1c230b0 	strh	r3, [r2]
    2458:	e3003af8 	movw	r3, #2808	; 0xaf8
    245c:	e34f3fff 	movt	r3, #65535	; 0xffff
    2460:	e3012420 	movw	r2, #5152	; 0x1420
    2464:	e24b1004 	sub	r1, r11, #4
    2468:	e0813003 	add	r3, r1, r3
    246c:	e0832002 	add	r2, r3, r2
    2470:	e30e38e4 	movw	r3, #59620	; 0xe8e4
    2474:	e34f3fff 	movt	r3, #65535	; 0xffff
    2478:	e1c230b0 	strh	r3, [r2]
    247c:	e3003af8 	movw	r3, #2808	; 0xaf8
    2480:	e34f3fff 	movt	r3, #65535	; 0xffff
    2484:	e3012422 	movw	r2, #5154	; 0x1422
    2488:	e24b1004 	sub	r1, r11, #4
    248c:	e0813003 	add	r3, r1, r3
    2490:	e0832002 	add	r2, r3, r2
    2494:	e30e38e4 	movw	r3, #59620	; 0xe8e4
    2498:	e34f3fff 	movt	r3, #65535	; 0xffff
    249c:	e1c230b0 	strh	r3, [r2]
    24a0:	e3003af8 	movw	r3, #2808	; 0xaf8
    24a4:	e34f3fff 	movt	r3, #65535	; 0xffff
    24a8:	e3012424 	movw	r2, #5156	; 0x1424
    24ac:	e24b1004 	sub	r1, r11, #4
    24b0:	e0813003 	add	r3, r1, r3
    24b4:	e0832002 	add	r2, r3, r2
    24b8:	e30e38e4 	movw	r3, #59620	; 0xe8e4
    24bc:	e34f3fff 	movt	r3, #65535	; 0xffff
    24c0:	e1c230b0 	strh	r3, [r2]
    24c4:	e3003af8 	movw	r3, #2808	; 0xaf8
    24c8:	e34f3fff 	movt	r3, #65535	; 0xffff
    24cc:	e3012426 	movw	r2, #5158	; 0x1426
    24d0:	e24b1004 	sub	r1, r11, #4
    24d4:	e0813003 	add	r3, r1, r3
    24d8:	e0832002 	add	r2, r3, r2
    24dc:	e30e38e4 	movw	r3, #59620	; 0xe8e4
    24e0:	e34f3fff 	movt	r3, #65535	; 0xffff
    24e4:	e1c230b0 	strh	r3, [r2]
    24e8:	e3003af8 	movw	r3, #2808	; 0xaf8
    24ec:	e34f3fff 	movt	r3, #65535	; 0xffff
    24f0:	e3012428 	movw	r2, #5160	; 0x1428
    24f4:	e24b1004 	sub	r1, r11, #4
    24f8:	e0813003 	add	r3, r1, r3
    24fc:	e0832002 	add	r2, r3, r2
    2500:	e30e38e4 	movw	r3, #59620	; 0xe8e4
    2504:	e34f3fff 	movt	r3, #65535	; 0xffff
    2508:	e1c230b0 	strh	r3, [r2]
    250c:	e3003af8 	movw	r3, #2808	; 0xaf8
    2510:	e34f3fff 	movt	r3, #65535	; 0xffff
    2514:	e301242a 	movw	r2, #5162	; 0x142a
    2518:	e24b1004 	sub	r1, r11, #4
    251c:	e0813003 	add	r3, r1, r3
    2520:	e0832002 	add	r2, r3, r2
    2524:	e30e38e4 	movw	r3, #59620	; 0xe8e4
    2528:	e34f3fff 	movt	r3, #65535	; 0xffff
    252c:	e1c230b0 	strh	r3, [r2]
    2530:	e3003af8 	movw	r3, #2808	; 0xaf8
    2534:	e34f3fff 	movt	r3, #65535	; 0xffff
    2538:	e301242c 	movw	r2, #5164	; 0x142c
    253c:	e24b1004 	sub	r1, r11, #4
    2540:	e0813003 	add	r3, r1, r3
    2544:	e0832002 	add	r2, r3, r2
    2548:	e30e38e4 	movw	r3, #59620	; 0xe8e4
    254c:	e34f3fff 	movt	r3, #65535	; 0xffff
    2550:	e1c230b0 	strh	r3, [r2]
    2554:	e3003af8 	movw	r3, #2808	; 0xaf8
    2558:	e34f3fff 	movt	r3, #65535	; 0xffff
    255c:	e301242e 	movw	r2, #5166	; 0x142e
    2560:	e24b1004 	sub	r1, r11, #4
    2564:	e0813003 	add	r3, r1, r3
    2568:	e0832002 	add	r2, r3, r2
    256c:	e30e38e4 	movw	r3, #59620	; 0xe8e4
    2570:	e34f3fff 	movt	r3, #65535	; 0xffff
    2574:	e1c230b0 	strh	r3, [r2]
    2578:	e3003af8 	movw	r3, #2808	; 0xaf8
    257c:	e34f3fff 	movt	r3, #65535	; 0xffff
    2580:	e3012430 	movw	r2, #5168	; 0x1430
    2584:	e24b1004 	sub	r1, r11, #4
    2588:	e0813003 	add	r3, r1, r3
    258c:	e0832002 	add	r2, r3, r2
    2590:	e30e38e4 	movw	r3, #59620	; 0xe8e4
    2594:	e34f3fff 	movt	r3, #65535	; 0xffff
    2598:	e1c230b0 	strh	r3, [r2]
    259c:	e3003af8 	movw	r3, #2808	; 0xaf8
    25a0:	e34f3fff 	movt	r3, #65535	; 0xffff
    25a4:	e3012432 	movw	r2, #5170	; 0x1432
    25a8:	e24b1004 	sub	r1, r11, #4
    25ac:	e0813003 	add	r3, r1, r3
    25b0:	e0832002 	add	r2, r3, r2
    25b4:	e30e38e4 	movw	r3, #59620	; 0xe8e4
    25b8:	e34f3fff 	movt	r3, #65535	; 0xffff
    25bc:	e1c230b0 	strh	r3, [r2]
    25c0:	e3003af8 	movw	r3, #2808	; 0xaf8
    25c4:	e34f3fff 	movt	r3, #65535	; 0xffff
    25c8:	e3012434 	movw	r2, #5172	; 0x1434
    25cc:	e24b1004 	sub	r1, r11, #4
    25d0:	e0813003 	add	r3, r1, r3
    25d4:	e0832002 	add	r2, r3, r2
    25d8:	e30e38e4 	movw	r3, #59620	; 0xe8e4
    25dc:	e34f3fff 	movt	r3, #65535	; 0xffff
    25e0:	e1c230b0 	strh	r3, [r2]
    25e4:	e3003af8 	movw	r3, #2808	; 0xaf8
    25e8:	e34f3fff 	movt	r3, #65535	; 0xffff
    25ec:	e3012436 	movw	r2, #5174	; 0x1436
    25f0:	e24b1004 	sub	r1, r11, #4
    25f4:	e0813003 	add	r3, r1, r3
    25f8:	e0832002 	add	r2, r3, r2
    25fc:	e30e38e4 	movw	r3, #59620	; 0xe8e4
    2600:	e34f3fff 	movt	r3, #65535	; 0xffff
    2604:	e1c230b0 	strh	r3, [r2]
    2608:	e3003af8 	movw	r3, #2808	; 0xaf8
    260c:	e34f3fff 	movt	r3, #65535	; 0xffff
    2610:	e3012438 	movw	r2, #5176	; 0x1438
    2614:	e24b1004 	sub	r1, r11, #4
    2618:	e0813003 	add	r3, r1, r3
    261c:	e0832002 	add	r2, r3, r2
    2620:	e30e38e4 	movw	r3, #59620	; 0xe8e4
    2624:	e34f3fff 	movt	r3, #65535	; 0xffff
    2628:	e1c230b0 	strh	r3, [r2]
    262c:	e3003af8 	movw	r3, #2808	; 0xaf8
    2630:	e34f3fff 	movt	r3, #65535	; 0xffff
    2634:	e301243a 	movw	r2, #5178	; 0x143a
    2638:	e24b1004 	sub	r1, r11, #4
    263c:	e0813003 	add	r3, r1, r3
    2640:	e0832002 	add	r2, r3, r2
    2644:	e30e38e4 	movw	r3, #59620	; 0xe8e4
    2648:	e34f3fff 	movt	r3, #65535	; 0xffff
    264c:	e1c230b0 	strh	r3, [r2]
    2650:	e3003af8 	movw	r3, #2808	; 0xaf8
    2654:	e34f3fff 	movt	r3, #65535	; 0xffff
    2658:	e301243c 	movw	r2, #5180	; 0x143c
    265c:	e24b1004 	sub	r1, r11, #4
    2660:	e0813003 	add	r3, r1, r3
    2664:	e0832002 	add	r2, r3, r2
    2668:	e30e38e4 	movw	r3, #59620	; 0xe8e4
    266c:	e34f3fff 	movt	r3, #65535	; 0xffff
    2670:	e1c230b0 	strh	r3, [r2]
    2674:	e3003af8 	movw	r3, #2808	; 0xaf8
    2678:	e34f3fff 	movt	r3, #65535	; 0xffff
    267c:	e301243e 	movw	r2, #5182	; 0x143e
    2680:	e24b1004 	sub	r1, r11, #4
    2684:	e0813003 	add	r3, r1, r3
    2688:	e0832002 	add	r2, r3, r2
    268c:	e30e38e4 	movw	r3, #59620	; 0xe8e4
    2690:	e34f3fff 	movt	r3, #65535	; 0xffff
    2694:	e1c230b0 	strh	r3, [r2]
    2698:	e3003af8 	movw	r3, #2808	; 0xaf8
    269c:	e34f3fff 	movt	r3, #65535	; 0xffff
    26a0:	e3a02d51 	mov	r2, #5184	; 0x1440
    26a4:	e24b1004 	sub	r1, r11, #4
    26a8:	e0813003 	add	r3, r1, r3
    26ac:	e0832002 	add	r2, r3, r2
    26b0:	e30e38e4 	movw	r3, #59620	; 0xe8e4
    26b4:	e34f3fff 	movt	r3, #65535	; 0xffff
    26b8:	e1c230b0 	strh	r3, [r2]
    26bc:	e3003af8 	movw	r3, #2808	; 0xaf8
    26c0:	e34f3fff 	movt	r3, #65535	; 0xffff
    26c4:	e3012442 	movw	r2, #5186	; 0x1442
    26c8:	e24b1004 	sub	r1, r11, #4
    26cc:	e0813003 	add	r3, r1, r3
    26d0:	e0832002 	add	r2, r3, r2
    26d4:	e30e38e4 	movw	r3, #59620	; 0xe8e4
    26d8:	e34f3fff 	movt	r3, #65535	; 0xffff
    26dc:	e1c230b0 	strh	r3, [r2]
    26e0:	e3003af8 	movw	r3, #2808	; 0xaf8
    26e4:	e34f3fff 	movt	r3, #65535	; 0xffff
    26e8:	e3012444 	movw	r2, #5188	; 0x1444
    26ec:	e24b1004 	sub	r1, r11, #4
    26f0:	e0813003 	add	r3, r1, r3
    26f4:	e0832002 	add	r2, r3, r2
    26f8:	e30e38e4 	movw	r3, #59620	; 0xe8e4
    26fc:	e34f3fff 	movt	r3, #65535	; 0xffff
    2700:	e1c230b0 	strh	r3, [r2]
    2704:	e3003af8 	movw	r3, #2808	; 0xaf8
    2708:	e34f3fff 	movt	r3, #65535	; 0xffff
    270c:	e3012446 	movw	r2, #5190	; 0x1446
    2710:	e24b1004 	sub	r1, r11, #4
    2714:	e0813003 	add	r3, r1, r3
    2718:	e0832002 	add	r2, r3, r2
    271c:	e30e38e4 	movw	r3, #59620	; 0xe8e4
    2720:	e34f3fff 	movt	r3, #65535	; 0xffff
    2724:	e1c230b0 	strh	r3, [r2]
    2728:	e3003af8 	movw	r3, #2808	; 0xaf8
    272c:	e34f3fff 	movt	r3, #65535	; 0xffff
    2730:	e3012448 	movw	r2, #5192	; 0x1448
    2734:	e24b1004 	sub	r1, r11, #4
    2738:	e0813003 	add	r3, r1, r3
    273c:	e0832002 	add	r2, r3, r2
    2740:	e30e38e4 	movw	r3, #59620	; 0xe8e4
    2744:	e34f3fff 	movt	r3, #65535	; 0xffff
    2748:	e1c230b0 	strh	r3, [r2]
    274c:	e3003af8 	movw	r3, #2808	; 0xaf8
    2750:	e34f3fff 	movt	r3, #65535	; 0xffff
    2754:	e301244a 	movw	r2, #5194	; 0x144a
    2758:	e24b1004 	sub	r1, r11, #4
    275c:	e0813003 	add	r3, r1, r3
    2760:	e0832002 	add	r2, r3, r2
    2764:	e30e38e4 	movw	r3, #59620	; 0xe8e4
    2768:	e34f3fff 	movt	r3, #65535	; 0xffff
    276c:	e1c230b0 	strh	r3, [r2]
    2770:	e3003af8 	movw	r3, #2808	; 0xaf8
    2774:	e34f3fff 	movt	r3, #65535	; 0xffff
    2778:	e301244c 	movw	r2, #5196	; 0x144c
    277c:	e24b1004 	sub	r1, r11, #4
    2780:	e0813003 	add	r3, r1, r3
    2784:	e0832002 	add	r2, r3, r2
    2788:	e30e38e4 	movw	r3, #59620	; 0xe8e4
    278c:	e34f3fff 	movt	r3, #65535	; 0xffff
    2790:	e1c230b0 	strh	r3, [r2]
    2794:	e3003af8 	movw	r3, #2808	; 0xaf8
    2798:	e34f3fff 	movt	r3, #65535	; 0xffff
    279c:	e301244e 	movw	r2, #5198	; 0x144e
    27a0:	e24b1004 	sub	r1, r11, #4
    27a4:	e0813003 	add	r3, r1, r3
    27a8:	e0832002 	add	r2, r3, r2
    27ac:	e30e38e4 	movw	r3, #59620	; 0xe8e4
    27b0:	e34f3fff 	movt	r3, #65535	; 0xffff
    27b4:	e1c230b0 	strh	r3, [r2]
    27b8:	e3003af8 	movw	r3, #2808	; 0xaf8
    27bc:	e34f3fff 	movt	r3, #65535	; 0xffff
    27c0:	e3012450 	movw	r2, #5200	; 0x1450
    27c4:	e24b1004 	sub	r1, r11, #4
    27c8:	e0813003 	add	r3, r1, r3
    27cc:	e0832002 	add	r2, r3, r2
    27d0:	e30e38e4 	movw	r3, #59620	; 0xe8e4
    27d4:	e34f3fff 	movt	r3, #65535	; 0xffff
    27d8:	e1c230b0 	strh	r3, [r2]
    27dc:	e3003af8 	movw	r3, #2808	; 0xaf8
    27e0:	e34f3fff 	movt	r3, #65535	; 0xffff
    27e4:	e3012462 	movw	r2, #5218	; 0x1462
    27e8:	e24b1004 	sub	r1, r11, #4
    27ec:	e0813003 	add	r3, r1, r3
    27f0:	e0833002 	add	r3, r3, r2
    27f4:	e3e0207f 	mvn	r2, #127	; 0x7f
    27f8:	e1c320b0 	strh	r2, [r3]
    27fc:	e3003af8 	movw	r3, #2808	; 0xaf8
    2800:	e34f3fff 	movt	r3, #65535	; 0xffff
    2804:	e3012478 	movw	r2, #5240	; 0x1478
    2808:	e24b1004 	sub	r1, r11, #4
    280c:	e0813003 	add	r3, r1, r3
    2810:	e0832002 	add	r2, r3, r2
    2814:	e30b3724 	movw	r3, #46884	; 0xb724
    2818:	e34f3fff 	movt	r3, #65535	; 0xffff
    281c:	e1c230b0 	strh	r3, [r2]
    2820:	e3003af8 	movw	r3, #2808	; 0xaf8
    2824:	e34f3fff 	movt	r3, #65535	; 0xffff
    2828:	e301247a 	movw	r2, #5242	; 0x147a
    282c:	e24b1004 	sub	r1, r11, #4
    2830:	e0813003 	add	r3, r1, r3
    2834:	e0832002 	add	r2, r3, r2
    2838:	e30b3724 	movw	r3, #46884	; 0xb724
    283c:	e34f3fff 	movt	r3, #65535	; 0xffff
    2840:	e1c230b0 	strh	r3, [r2]
    2844:	e3003af8 	movw	r3, #2808	; 0xaf8
    2848:	e34f3fff 	movt	r3, #65535	; 0xffff
    284c:	e301247c 	movw	r2, #5244	; 0x147c
    2850:	e24b1004 	sub	r1, r11, #4
    2854:	e0813003 	add	r3, r1, r3
    2858:	e0832002 	add	r2, r3, r2
    285c:	e30b3724 	movw	r3, #46884	; 0xb724
    2860:	e34f3fff 	movt	r3, #65535	; 0xffff
    2864:	e1c230b0 	strh	r3, [r2]
    2868:	e3003af8 	movw	r3, #2808	; 0xaf8
    286c:	e34f3fff 	movt	r3, #65535	; 0xffff
    2870:	e301247e 	movw	r2, #5246	; 0x147e
    2874:	e24b1004 	sub	r1, r11, #4
    2878:	e0813003 	add	r3, r1, r3
    287c:	e0832002 	add	r2, r3, r2
    2880:	e30b3724 	movw	r3, #46884	; 0xb724
    2884:	e34f3fff 	movt	r3, #65535	; 0xffff
    2888:	e1c230b0 	strh	r3, [r2]
    288c:	e3003af8 	movw	r3, #2808	; 0xaf8
    2890:	e34f3fff 	movt	r3, #65535	; 0xffff
    2894:	e30124d0 	movw	r2, #5328	; 0x14d0
    2898:	e24b1004 	sub	r1, r11, #4
    289c:	e0813003 	add	r3, r1, r3
    28a0:	e0833002 	add	r3, r3, r2
    28a4:	e3e0207f 	mvn	r2, #127	; 0x7f
    28a8:	e1c320b0 	strh	r2, [r3]
    28ac:	e3003af8 	movw	r3, #2808	; 0xaf8
    28b0:	e34f3fff 	movt	r3, #65535	; 0xffff
    28b4:	e30124e0 	movw	r2, #5344	; 0x14e0
    28b8:	e24b1004 	sub	r1, r11, #4
    28bc:	e0813003 	add	r3, r1, r3
    28c0:	e0832002 	add	r2, r3, r2
    28c4:	e30e38e4 	movw	r3, #59620	; 0xe8e4
    28c8:	e34f3fff 	movt	r3, #65535	; 0xffff
    28cc:	e1c230b0 	strh	r3, [r2]
    28d0:	e3003af8 	movw	r3, #2808	; 0xaf8
    28d4:	e34f3fff 	movt	r3, #65535	; 0xffff
    28d8:	e30124e2 	movw	r2, #5346	; 0x14e2
    28dc:	e24b1004 	sub	r1, r11, #4
    28e0:	e0813003 	add	r3, r1, r3
    28e4:	e0832002 	add	r2, r3, r2
    28e8:	e30e38e4 	movw	r3, #59620	; 0xe8e4
    28ec:	e34f3fff 	movt	r3, #65535	; 0xffff
    28f0:	e1c230b0 	strh	r3, [r2]
    28f4:	e3003af8 	movw	r3, #2808	; 0xaf8
    28f8:	e34f3fff 	movt	r3, #65535	; 0xffff
    28fc:	e30124e4 	movw	r2, #5348	; 0x14e4
    2900:	e24b1004 	sub	r1, r11, #4
    2904:	e0813003 	add	r3, r1, r3
    2908:	e0832002 	add	r2, r3, r2
    290c:	e30e38e4 	movw	r3, #59620	; 0xe8e4
    2910:	e34f3fff 	movt	r3, #65535	; 0xffff
    2914:	e1c230b0 	strh	r3, [r2]
    2918:	e3003af8 	movw	r3, #2808	; 0xaf8
    291c:	e34f3fff 	movt	r3, #65535	; 0xffff
    2920:	e30124e6 	movw	r2, #5350	; 0x14e6
    2924:	e24b1004 	sub	r1, r11, #4
    2928:	e0813003 	add	r3, r1, r3
    292c:	e0832002 	add	r2, r3, r2
    2930:	e30e38e4 	movw	r3, #59620	; 0xe8e4
    2934:	e34f3fff 	movt	r3, #65535	; 0xffff
    2938:	e1c230b0 	strh	r3, [r2]
    293c:	e3003af8 	movw	r3, #2808	; 0xaf8
    2940:	e34f3fff 	movt	r3, #65535	; 0xffff
    2944:	e30124e8 	movw	r2, #5352	; 0x14e8
    2948:	e24b1004 	sub	r1, r11, #4
    294c:	e0813003 	add	r3, r1, r3
    2950:	e0832002 	add	r2, r3, r2
    2954:	e30e38e4 	movw	r3, #59620	; 0xe8e4
    2958:	e34f3fff 	movt	r3, #65535	; 0xffff
    295c:	e1c230b0 	strh	r3, [r2]
    2960:	e3003af8 	movw	r3, #2808	; 0xaf8
    2964:	e34f3fff 	movt	r3, #65535	; 0xffff
    2968:	e30124ea 	movw	r2, #5354	; 0x14ea
    296c:	e24b1004 	sub	r1, r11, #4
    2970:	e0813003 	add	r3, r1, r3
    2974:	e0832002 	add	r2, r3, r2
    2978:	e30e38e4 	movw	r3, #59620	; 0xe8e4
    297c:	e34f3fff 	movt	r3, #65535	; 0xffff
    2980:	e1c230b0 	strh	r3, [r2]
    2984:	e3003af8 	movw	r3, #2808	; 0xaf8
    2988:	e34f3fff 	movt	r3, #65535	; 0xffff
    298c:	e30124ec 	movw	r2, #5356	; 0x14ec
    2990:	e24b1004 	sub	r1, r11, #4
    2994:	e0813003 	add	r3, r1, r3
    2998:	e0832002 	add	r2, r3, r2
    299c:	e30e38e4 	movw	r3, #59620	; 0xe8e4
    29a0:	e34f3fff 	movt	r3, #65535	; 0xffff
    29a4:	e1c230b0 	strh	r3, [r2]
    29a8:	e3003af8 	movw	r3, #2808	; 0xaf8
    29ac:	e34f3fff 	movt	r3, #65535	; 0xffff
    29b0:	e30124ee 	movw	r2, #5358	; 0x14ee
    29b4:	e24b1004 	sub	r1, r11, #4
    29b8:	e0813003 	add	r3, r1, r3
    29bc:	e0832002 	add	r2, r3, r2
    29c0:	e30e38e4 	movw	r3, #59620	; 0xe8e4
    29c4:	e34f3fff 	movt	r3, #65535	; 0xffff
    29c8:	e1c230b0 	strh	r3, [r2]
    29cc:	e3003af8 	movw	r3, #2808	; 0xaf8
    29d0:	e34f3fff 	movt	r3, #65535	; 0xffff
    29d4:	e30124f0 	movw	r2, #5360	; 0x14f0
    29d8:	e24b1004 	sub	r1, r11, #4
    29dc:	e0813003 	add	r3, r1, r3
    29e0:	e0832002 	add	r2, r3, r2
    29e4:	e30e38e4 	movw	r3, #59620	; 0xe8e4
    29e8:	e34f3fff 	movt	r3, #65535	; 0xffff
    29ec:	e1c230b0 	strh	r3, [r2]
    29f0:	e3003af8 	movw	r3, #2808	; 0xaf8
    29f4:	e34f3fff 	movt	r3, #65535	; 0xffff
    29f8:	e30124f2 	movw	r2, #5362	; 0x14f2
    29fc:	e24b1004 	sub	r1, r11, #4
    2a00:	e0813003 	add	r3, r1, r3
    2a04:	e0832002 	add	r2, r3, r2
    2a08:	e30e38e4 	movw	r3, #59620	; 0xe8e4
    2a0c:	e34f3fff 	movt	r3, #65535	; 0xffff
    2a10:	e1c230b0 	strh	r3, [r2]
    2a14:	e3003af8 	movw	r3, #2808	; 0xaf8
    2a18:	e34f3fff 	movt	r3, #65535	; 0xffff
    2a1c:	e30124f4 	movw	r2, #5364	; 0x14f4
    2a20:	e24b1004 	sub	r1, r11, #4
    2a24:	e0813003 	add	r3, r1, r3
    2a28:	e0832002 	add	r2, r3, r2
    2a2c:	e30e38e4 	movw	r3, #59620	; 0xe8e4
    2a30:	e34f3fff 	movt	r3, #65535	; 0xffff
    2a34:	e1c230b0 	strh	r3, [r2]
    2a38:	e3003af8 	movw	r3, #2808	; 0xaf8
    2a3c:	e34f3fff 	movt	r3, #65535	; 0xffff
    2a40:	e30124f6 	movw	r2, #5366	; 0x14f6
    2a44:	e24b1004 	sub	r1, r11, #4
    2a48:	e0813003 	add	r3, r1, r3
    2a4c:	e0832002 	add	r2, r3, r2
    2a50:	e30e38e4 	movw	r3, #59620	; 0xe8e4
    2a54:	e34f3fff 	movt	r3, #65535	; 0xffff
    2a58:	e1c230b0 	strh	r3, [r2]
    2a5c:	e3003af8 	movw	r3, #2808	; 0xaf8
    2a60:	e34f3fff 	movt	r3, #65535	; 0xffff
    2a64:	e30124f8 	movw	r2, #5368	; 0x14f8
    2a68:	e24b1004 	sub	r1, r11, #4
    2a6c:	e0813003 	add	r3, r1, r3
    2a70:	e0832002 	add	r2, r3, r2
    2a74:	e30e38e4 	movw	r3, #59620	; 0xe8e4
    2a78:	e34f3fff 	movt	r3, #65535	; 0xffff
    2a7c:	e1c230b0 	strh	r3, [r2]
    2a80:	e3003af8 	movw	r3, #2808	; 0xaf8
    2a84:	e34f3fff 	movt	r3, #65535	; 0xffff
    2a88:	e30124fa 	movw	r2, #5370	; 0x14fa
    2a8c:	e24b1004 	sub	r1, r11, #4
    2a90:	e0813003 	add	r3, r1, r3
    2a94:	e0832002 	add	r2, r3, r2
    2a98:	e30e38e4 	movw	r3, #59620	; 0xe8e4
    2a9c:	e34f3fff 	movt	r3, #65535	; 0xffff
    2aa0:	e1c230b0 	strh	r3, [r2]
    2aa4:	e3003af8 	movw	r3, #2808	; 0xaf8
    2aa8:	e34f3fff 	movt	r3, #65535	; 0xffff
    2aac:	e3012528 	movw	r2, #5416	; 0x1528
    2ab0:	e24b1004 	sub	r1, r11, #4
    2ab4:	e0813003 	add	r3, r1, r3
    2ab8:	e0833002 	add	r3, r3, r2
    2abc:	e3e0207f 	mvn	r2, #127	; 0x7f
    2ac0:	e1c320b0 	strh	r2, [r3]
    2ac4:	e3003af8 	movw	r3, #2808	; 0xaf8
    2ac8:	e34f3fff 	movt	r3, #65535	; 0xffff
    2acc:	e301253c 	movw	r2, #5436	; 0x153c
    2ad0:	e24b1004 	sub	r1, r11, #4
    2ad4:	e0813003 	add	r3, r1, r3
    2ad8:	e0832002 	add	r2, r3, r2
    2adc:	e30b3724 	movw	r3, #46884	; 0xb724
    2ae0:	e34f3fff 	movt	r3, #65535	; 0xffff
    2ae4:	e1c230b0 	strh	r3, [r2]
    2ae8:	e3003af8 	movw	r3, #2808	; 0xaf8
    2aec:	e34f3fff 	movt	r3, #65535	; 0xffff
    2af0:	e301253e 	movw	r2, #5438	; 0x153e
    2af4:	e24b1004 	sub	r1, r11, #4
    2af8:	e0813003 	add	r3, r1, r3
    2afc:	e0832002 	add	r2, r3, r2
    2b00:	e30b3724 	movw	r3, #46884	; 0xb724
    2b04:	e34f3fff 	movt	r3, #65535	; 0xffff
    2b08:	e1c230b0 	strh	r3, [r2]
    2b0c:	e3003af8 	movw	r3, #2808	; 0xaf8
    2b10:	e34f3fff 	movt	r3, #65535	; 0xffff
    2b14:	e3a02d55 	mov	r2, #5440	; 0x1540
    2b18:	e24b1004 	sub	r1, r11, #4
    2b1c:	e0813003 	add	r3, r1, r3
    2b20:	e0832002 	add	r2, r3, r2
    2b24:	e30b3724 	movw	r3, #46884	; 0xb724
    2b28:	e34f3fff 	movt	r3, #65535	; 0xffff
    2b2c:	e1c230b0 	strh	r3, [r2]
    2b30:	e3003af8 	movw	r3, #2808	; 0xaf8
    2b34:	e34f3fff 	movt	r3, #65535	; 0xffff
    2b38:	e3012542 	movw	r2, #5442	; 0x1542
    2b3c:	e24b1004 	sub	r1, r11, #4
    2b40:	e0813003 	add	r3, r1, r3
    2b44:	e0832002 	add	r2, r3, r2
    2b48:	e30b3724 	movw	r3, #46884	; 0xb724
    2b4c:	e34f3fff 	movt	r3, #65535	; 0xffff
    2b50:	e1c230b0 	strh	r3, [r2]
    2b54:	e3003af8 	movw	r3, #2808	; 0xaf8
    2b58:	e34f3fff 	movt	r3, #65535	; 0xffff
    2b5c:	e3012594 	movw	r2, #5524	; 0x1594
    2b60:	e24b1004 	sub	r1, r11, #4
    2b64:	e0813003 	add	r3, r1, r3
    2b68:	e0833002 	add	r3, r3, r2
    2b6c:	e3e0207f 	mvn	r2, #127	; 0x7f
    2b70:	e1c320b0 	strh	r2, [r3]
    2b74:	e3003af8 	movw	r3, #2808	; 0xaf8
    2b78:	e34f3fff 	movt	r3, #65535	; 0xffff
    2b7c:	e30125ba 	movw	r2, #5562	; 0x15ba
    2b80:	e24b1004 	sub	r1, r11, #4
    2b84:	e0813003 	add	r3, r1, r3
    2b88:	e0832002 	add	r2, r3, r2
    2b8c:	e30e38e4 	movw	r3, #59620	; 0xe8e4
    2b90:	e34f3fff 	movt	r3, #65535	; 0xffff
    2b94:	e1c230b0 	strh	r3, [r2]
    2b98:	e3003af8 	movw	r3, #2808	; 0xaf8
    2b9c:	e34f3fff 	movt	r3, #65535	; 0xffff
    2ba0:	e30125bc 	movw	r2, #5564	; 0x15bc
    2ba4:	e24b1004 	sub	r1, r11, #4
    2ba8:	e0813003 	add	r3, r1, r3
    2bac:	e0832002 	add	r2, r3, r2
    2bb0:	e30e38e4 	movw	r3, #59620	; 0xe8e4
    2bb4:	e34f3fff 	movt	r3, #65535	; 0xffff
    2bb8:	e1c230b0 	strh	r3, [r2]
    2bbc:	e3003af8 	movw	r3, #2808	; 0xaf8
    2bc0:	e34f3fff 	movt	r3, #65535	; 0xffff
    2bc4:	e30125be 	movw	r2, #5566	; 0x15be
    2bc8:	e24b1004 	sub	r1, r11, #4
    2bcc:	e0813003 	add	r3, r1, r3
    2bd0:	e0832002 	add	r2, r3, r2
    2bd4:	e30e38e4 	movw	r3, #59620	; 0xe8e4
    2bd8:	e34f3fff 	movt	r3, #65535	; 0xffff
    2bdc:	e1c230b0 	strh	r3, [r2]
    2be0:	e3003af8 	movw	r3, #2808	; 0xaf8
    2be4:	e34f3fff 	movt	r3, #65535	; 0xffff
    2be8:	e3a02d57 	mov	r2, #5568	; 0x15c0
    2bec:	e24b1004 	sub	r1, r11, #4
    2bf0:	e0813003 	add	r3, r1, r3
    2bf4:	e0832002 	add	r2, r3, r2
    2bf8:	e30e38e4 	movw	r3, #59620	; 0xe8e4
    2bfc:	e34f3fff 	movt	r3, #65535	; 0xffff
    2c00:	e1c230b0 	strh	r3, [r2]
    2c04:	e3003af8 	movw	r3, #2808	; 0xaf8
    2c08:	e34f3fff 	movt	r3, #65535	; 0xffff
    2c0c:	e30125c2 	movw	r2, #5570	; 0x15c2
    2c10:	e24b1004 	sub	r1, r11, #4
    2c14:	e0813003 	add	r3, r1, r3
    2c18:	e0832002 	add	r2, r3, r2
    2c1c:	e30e38e4 	movw	r3, #59620	; 0xe8e4
    2c20:	e34f3fff 	movt	r3, #65535	; 0xffff
    2c24:	e1c230b0 	strh	r3, [r2]
    2c28:	e3003af8 	movw	r3, #2808	; 0xaf8
    2c2c:	e34f3fff 	movt	r3, #65535	; 0xffff
    2c30:	e30125ec 	movw	r2, #5612	; 0x15ec
    2c34:	e24b1004 	sub	r1, r11, #4
    2c38:	e0813003 	add	r3, r1, r3
    2c3c:	e0833002 	add	r3, r3, r2
    2c40:	e3e0207f 	mvn	r2, #127	; 0x7f
    2c44:	e1c320b0 	strh	r2, [r3]
    2c48:	e3003af8 	movw	r3, #2808	; 0xaf8
    2c4c:	e34f3fff 	movt	r3, #65535	; 0xffff
    2c50:	e3012602 	movw	r2, #5634	; 0x1602
    2c54:	e24b1004 	sub	r1, r11, #4
    2c58:	e0813003 	add	r3, r1, r3
    2c5c:	e0832002 	add	r2, r3, r2
    2c60:	e30b3724 	movw	r3, #46884	; 0xb724
    2c64:	e34f3fff 	movt	r3, #65535	; 0xffff
    2c68:	e1c230b0 	strh	r3, [r2]
    2c6c:	e3003af8 	movw	r3, #2808	; 0xaf8
    2c70:	e34f3fff 	movt	r3, #65535	; 0xffff
    2c74:	e3012604 	movw	r2, #5636	; 0x1604
    2c78:	e24b1004 	sub	r1, r11, #4
    2c7c:	e0813003 	add	r3, r1, r3
    2c80:	e0832002 	add	r2, r3, r2
    2c84:	e30b3724 	movw	r3, #46884	; 0xb724
    2c88:	e34f3fff 	movt	r3, #65535	; 0xffff
    2c8c:	e1c230b0 	strh	r3, [r2]
    2c90:	e3003af8 	movw	r3, #2808	; 0xaf8
    2c94:	e34f3fff 	movt	r3, #65535	; 0xffff
    2c98:	e301264e 	movw	r2, #5710	; 0x164e
    2c9c:	e24b1004 	sub	r1, r11, #4
    2ca0:	e0813003 	add	r3, r1, r3
    2ca4:	e0832002 	add	r2, r3, r2
    2ca8:	e30b3724 	movw	r3, #46884	; 0xb724
    2cac:	e34f3fff 	movt	r3, #65535	; 0xffff
    2cb0:	e1c230b0 	strh	r3, [r2]
    2cb4:	e3003af8 	movw	r3, #2808	; 0xaf8
    2cb8:	e34f3fff 	movt	r3, #65535	; 0xffff
    2cbc:	e3012650 	movw	r2, #5712	; 0x1650
    2cc0:	e24b1004 	sub	r1, r11, #4
    2cc4:	e0813003 	add	r3, r1, r3
    2cc8:	e0832002 	add	r2, r3, r2
    2ccc:	e30b3724 	movw	r3, #46884	; 0xb724
    2cd0:	e34f3fff 	movt	r3, #65535	; 0xffff
    2cd4:	e1c230b0 	strh	r3, [r2]
    2cd8:	e3003af8 	movw	r3, #2808	; 0xaf8
    2cdc:	e34f3fff 	movt	r3, #65535	; 0xffff
    2ce0:	e3012658 	movw	r2, #5720	; 0x1658
    2ce4:	e24b1004 	sub	r1, r11, #4
    2ce8:	e0813003 	add	r3, r1, r3
    2cec:	e0833002 	add	r3, r3, r2
    2cf0:	e3e0207f 	mvn	r2, #127	; 0x7f
    2cf4:	e1c320b0 	strh	r2, [r3]
    2cf8:	e3003af8 	movw	r3, #2808	; 0xaf8
    2cfc:	e34f3fff 	movt	r3, #65535	; 0xffff
    2d00:	e3a02d5a 	mov	r2, #5760	; 0x1680
    2d04:	e24b1004 	sub	r1, r11, #4
    2d08:	e0813003 	add	r3, r1, r3
    2d0c:	e0832002 	add	r2, r3, r2
    2d10:	e30e38e4 	movw	r3, #59620	; 0xe8e4
    2d14:	e34f3fff 	movt	r3, #65535	; 0xffff
    2d18:	e1c230b0 	strh	r3, [r2]
    2d1c:	e3003af8 	movw	r3, #2808	; 0xaf8
    2d20:	e34f3fff 	movt	r3, #65535	; 0xffff
    2d24:	e3012682 	movw	r2, #5762	; 0x1682
    2d28:	e24b1004 	sub	r1, r11, #4
    2d2c:	e0813003 	add	r3, r1, r3
    2d30:	e0832002 	add	r2, r3, r2
    2d34:	e30e38e4 	movw	r3, #59620	; 0xe8e4
    2d38:	e34f3fff 	movt	r3, #65535	; 0xffff
    2d3c:	e1c230b0 	strh	r3, [r2]
    2d40:	e3003af8 	movw	r3, #2808	; 0xaf8
    2d44:	e34f3fff 	movt	r3, #65535	; 0xffff
    2d48:	e3012684 	movw	r2, #5764	; 0x1684
    2d4c:	e24b1004 	sub	r1, r11, #4
    2d50:	e0813003 	add	r3, r1, r3
    2d54:	e0832002 	add	r2, r3, r2
    2d58:	e30e38e4 	movw	r3, #59620	; 0xe8e4
    2d5c:	e34f3fff 	movt	r3, #65535	; 0xffff
    2d60:	e1c230b0 	strh	r3, [r2]
    2d64:	e3003af8 	movw	r3, #2808	; 0xaf8
    2d68:	e34f3fff 	movt	r3, #65535	; 0xffff
    2d6c:	e3012686 	movw	r2, #5766	; 0x1686
    2d70:	e24b1004 	sub	r1, r11, #4
    2d74:	e0813003 	add	r3, r1, r3
    2d78:	e0832002 	add	r2, r3, r2
    2d7c:	e30e38e4 	movw	r3, #59620	; 0xe8e4
    2d80:	e34f3fff 	movt	r3, #65535	; 0xffff
    2d84:	e1c230b0 	strh	r3, [r2]
    2d88:	e3003af8 	movw	r3, #2808	; 0xaf8
    2d8c:	e34f3fff 	movt	r3, #65535	; 0xffff
    2d90:	e3012688 	movw	r2, #5768	; 0x1688
    2d94:	e24b1004 	sub	r1, r11, #4
    2d98:	e0813003 	add	r3, r1, r3
    2d9c:	e0832002 	add	r2, r3, r2
    2da0:	e30e38e4 	movw	r3, #59620	; 0xe8e4
    2da4:	e34f3fff 	movt	r3, #65535	; 0xffff
    2da8:	e1c230b0 	strh	r3, [r2]
    2dac:	e3003af8 	movw	r3, #2808	; 0xaf8
    2db0:	e34f3fff 	movt	r3, #65535	; 0xffff
    2db4:	e30126b0 	movw	r2, #5808	; 0x16b0
    2db8:	e24b1004 	sub	r1, r11, #4
    2dbc:	e0813003 	add	r3, r1, r3
    2dc0:	e0833002 	add	r3, r3, r2
    2dc4:	e3e0207f 	mvn	r2, #127	; 0x7f
    2dc8:	e1c320b0 	strh	r2, [r3]
    2dcc:	e3003af8 	movw	r3, #2808	; 0xaf8
    2dd0:	e34f3fff 	movt	r3, #65535	; 0xffff
    2dd4:	e3012710 	movw	r2, #5904	; 0x1710
    2dd8:	e24b1004 	sub	r1, r11, #4
    2ddc:	e0813003 	add	r3, r1, r3
    2de0:	e0832002 	add	r2, r3, r2
    2de4:	e30b3724 	movw	r3, #46884	; 0xb724
    2de8:	e34f3fff 	movt	r3, #65535	; 0xffff
    2dec:	e1c230b0 	strh	r3, [r2]
    2df0:	e3003af8 	movw	r3, #2808	; 0xaf8
    2df4:	e34f3fff 	movt	r3, #65535	; 0xffff
    2df8:	e3012712 	movw	r2, #5906	; 0x1712
    2dfc:	e24b1004 	sub	r1, r11, #4
    2e00:	e0813003 	add	r3, r1, r3
    2e04:	e0832002 	add	r2, r3, r2
    2e08:	e30b3724 	movw	r3, #46884	; 0xb724
    2e0c:	e34f3fff 	movt	r3, #65535	; 0xffff
    2e10:	e1c230b0 	strh	r3, [r2]
    2e14:	e3003af8 	movw	r3, #2808	; 0xaf8
    2e18:	e34f3fff 	movt	r3, #65535	; 0xffff
    2e1c:	e3012714 	movw	r2, #5908	; 0x1714
    2e20:	e24b1004 	sub	r1, r11, #4
    2e24:	e0813003 	add	r3, r1, r3
    2e28:	e0832002 	add	r2, r3, r2
    2e2c:	e30b3724 	movw	r3, #46884	; 0xb724
    2e30:	e34f3fff 	movt	r3, #65535	; 0xffff
    2e34:	e1c230b0 	strh	r3, [r2]
    2e38:	e3003af8 	movw	r3, #2808	; 0xaf8
    2e3c:	e34f3fff 	movt	r3, #65535	; 0xffff
    2e40:	e3012716 	movw	r2, #5910	; 0x1716
    2e44:	e24b1004 	sub	r1, r11, #4
    2e48:	e0813003 	add	r3, r1, r3
    2e4c:	e0832002 	add	r2, r3, r2
    2e50:	e30b3724 	movw	r3, #46884	; 0xb724
    2e54:	e34f3fff 	movt	r3, #65535	; 0xffff
    2e58:	e1c230b0 	strh	r3, [r2]
    2e5c:	e3003af8 	movw	r3, #2808	; 0xaf8
    2e60:	e34f3fff 	movt	r3, #65535	; 0xffff
    2e64:	e301271c 	movw	r2, #5916	; 0x171c
    2e68:	e24b1004 	sub	r1, r11, #4
    2e6c:	e0813003 	add	r3, r1, r3
    2e70:	e0833002 	add	r3, r3, r2
    2e74:	e3e0207f 	mvn	r2, #127	; 0x7f
    2e78:	e1c320b0 	strh	r2, [r3]
    2e7c:	e3003af8 	movw	r3, #2808	; 0xaf8
    2e80:	e34f3fff 	movt	r3, #65535	; 0xffff
    2e84:	e3012744 	movw	r2, #5956	; 0x1744
    2e88:	e24b1004 	sub	r1, r11, #4
    2e8c:	e0813003 	add	r3, r1, r3
    2e90:	e0832002 	add	r2, r3, r2
    2e94:	e30e38e4 	movw	r3, #59620	; 0xe8e4
    2e98:	e34f3fff 	movt	r3, #65535	; 0xffff
    2e9c:	e1c230b0 	strh	r3, [r2]
    2ea0:	e3003af8 	movw	r3, #2808	; 0xaf8
    2ea4:	e34f3fff 	movt	r3, #65535	; 0xffff
    2ea8:	e3012746 	movw	r2, #5958	; 0x1746
    2eac:	e24b1004 	sub	r1, r11, #4
    2eb0:	e0813003 	add	r3, r1, r3
    2eb4:	e0832002 	add	r2, r3, r2
    2eb8:	e30e38e4 	movw	r3, #59620	; 0xe8e4
    2ebc:	e34f3fff 	movt	r3, #65535	; 0xffff
    2ec0:	e1c230b0 	strh	r3, [r2]
    2ec4:	e3003af8 	movw	r3, #2808	; 0xaf8
    2ec8:	e34f3fff 	movt	r3, #65535	; 0xffff
    2ecc:	e3012748 	movw	r2, #5960	; 0x1748
    2ed0:	e24b1004 	sub	r1, r11, #4
    2ed4:	e0813003 	add	r3, r1, r3
    2ed8:	e0832002 	add	r2, r3, r2
    2edc:	e30e38e4 	movw	r3, #59620	; 0xe8e4
    2ee0:	e34f3fff 	movt	r3, #65535	; 0xffff
    2ee4:	e1c230b0 	strh	r3, [r2]
    2ee8:	e3003af8 	movw	r3, #2808	; 0xaf8
    2eec:	e34f3fff 	movt	r3, #65535	; 0xffff
    2ef0:	e301274a 	movw	r2, #5962	; 0x174a
    2ef4:	e24b1004 	sub	r1, r11, #4
    2ef8:	e0813003 	add	r3, r1, r3
    2efc:	e0832002 	add	r2, r3, r2
    2f00:	e30e38e4 	movw	r3, #59620	; 0xe8e4
    2f04:	e34f3fff 	movt	r3, #65535	; 0xffff
    2f08:	e1c230b0 	strh	r3, [r2]
    2f0c:	e3003af8 	movw	r3, #2808	; 0xaf8
    2f10:	e34f3fff 	movt	r3, #65535	; 0xffff
    2f14:	e301274c 	movw	r2, #5964	; 0x174c
    2f18:	e24b1004 	sub	r1, r11, #4
    2f1c:	e0813003 	add	r3, r1, r3
    2f20:	e0832002 	add	r2, r3, r2
    2f24:	e30e38e4 	movw	r3, #59620	; 0xe8e4
    2f28:	e34f3fff 	movt	r3, #65535	; 0xffff
    2f2c:	e1c230b0 	strh	r3, [r2]
    2f30:	e3003af8 	movw	r3, #2808	; 0xaf8
    2f34:	e34f3fff 	movt	r3, #65535	; 0xffff
    2f38:	e301274e 	movw	r2, #5966	; 0x174e
    2f3c:	e24b1004 	sub	r1, r11, #4
    2f40:	e0813003 	add	r3, r1, r3
    2f44:	e0832002 	add	r2, r3, r2
    2f48:	e30e38e4 	movw	r3, #59620	; 0xe8e4
    2f4c:	e34f3fff 	movt	r3, #65535	; 0xffff
    2f50:	e1c230b0 	strh	r3, [r2]
    2f54:	e3003af8 	movw	r3, #2808	; 0xaf8
    2f58:	e34f3fff 	movt	r3, #65535	; 0xffff
    2f5c:	e3012774 	movw	r2, #6004	; 0x1774
    2f60:	e24b1004 	sub	r1, r11, #4
    2f64:	e0813003 	add	r3, r1, r3
    2f68:	e0833002 	add	r3, r3, r2
    2f6c:	e3e0207f 	mvn	r2, #127	; 0x7f
    2f70:	e1c320b0 	strh	r2, [r3]
    2f74:	e3003af8 	movw	r3, #2808	; 0xaf8
    2f78:	e34f3fff 	movt	r3, #65535	; 0xffff
    2f7c:	e30127d4 	movw	r2, #6100	; 0x17d4
    2f80:	e24b1004 	sub	r1, r11, #4
    2f84:	e0813003 	add	r3, r1, r3
    2f88:	e0832002 	add	r2, r3, r2
    2f8c:	e30b3724 	movw	r3, #46884	; 0xb724
    2f90:	e34f3fff 	movt	r3, #65535	; 0xffff
    2f94:	e1c230b0 	strh	r3, [r2]
    2f98:	e3003af8 	movw	r3, #2808	; 0xaf8
    2f9c:	e34f3fff 	movt	r3, #65535	; 0xffff
    2fa0:	e30127d6 	movw	r2, #6102	; 0x17d6
    2fa4:	e24b1004 	sub	r1, r11, #4
    2fa8:	e0813003 	add	r3, r1, r3
    2fac:	e0832002 	add	r2, r3, r2
    2fb0:	e30b3724 	movw	r3, #46884	; 0xb724
    2fb4:	e34f3fff 	movt	r3, #65535	; 0xffff
    2fb8:	e1c230b0 	strh	r3, [r2]
    2fbc:	e3003af8 	movw	r3, #2808	; 0xaf8
    2fc0:	e34f3fff 	movt	r3, #65535	; 0xffff
    2fc4:	e30127d8 	movw	r2, #6104	; 0x17d8
    2fc8:	e24b1004 	sub	r1, r11, #4
    2fcc:	e0813003 	add	r3, r1, r3
    2fd0:	e0832002 	add	r2, r3, r2
    2fd4:	e30b3724 	movw	r3, #46884	; 0xb724
    2fd8:	e34f3fff 	movt	r3, #65535	; 0xffff
    2fdc:	e1c230b0 	strh	r3, [r2]
    2fe0:	e3003af8 	movw	r3, #2808	; 0xaf8
    2fe4:	e34f3fff 	movt	r3, #65535	; 0xffff
    2fe8:	e30127da 	movw	r2, #6106	; 0x17da
    2fec:	e24b1004 	sub	r1, r11, #4
    2ff0:	e0813003 	add	r3, r1, r3
    2ff4:	e0832002 	add	r2, r3, r2
    2ff8:	e30b3724 	movw	r3, #46884	; 0xb724
    2ffc:	e34f3fff 	movt	r3, #65535	; 0xffff
    3000:	e1c230b0 	strh	r3, [r2]
    3004:	e3003af8 	movw	r3, #2808	; 0xaf8
    3008:	e34f3fff 	movt	r3, #65535	; 0xffff
    300c:	e30127e0 	movw	r2, #6112	; 0x17e0
    3010:	e24b1004 	sub	r1, r11, #4
    3014:	e0813003 	add	r3, r1, r3
    3018:	e0833002 	add	r3, r3, r2
    301c:	e3e0207f 	mvn	r2, #127	; 0x7f
    3020:	e1c320b0 	strh	r2, [r3]
    3024:	e3003af8 	movw	r3, #2808	; 0xaf8
    3028:	e34f3fff 	movt	r3, #65535	; 0xffff
    302c:	e301280a 	movw	r2, #6154	; 0x180a
    3030:	e24b1004 	sub	r1, r11, #4
    3034:	e0813003 	add	r3, r1, r3
    3038:	e0832002 	add	r2, r3, r2
    303c:	e30e38e4 	movw	r3, #59620	; 0xe8e4
    3040:	e34f3fff 	movt	r3, #65535	; 0xffff
    3044:	e1c230b0 	strh	r3, [r2]
    3048:	e3003af8 	movw	r3, #2808	; 0xaf8
    304c:	e34f3fff 	movt	r3, #65535	; 0xffff
    3050:	e301280c 	movw	r2, #6156	; 0x180c
    3054:	e24b1004 	sub	r1, r11, #4
    3058:	e0813003 	add	r3, r1, r3
    305c:	e0832002 	add	r2, r3, r2
    3060:	e30e38e4 	movw	r3, #59620	; 0xe8e4
    3064:	e34f3fff 	movt	r3, #65535	; 0xffff
    3068:	e1c230b0 	strh	r3, [r2]
    306c:	e3003af8 	movw	r3, #2808	; 0xaf8
    3070:	e34f3fff 	movt	r3, #65535	; 0xffff
    3074:	e301280e 	movw	r2, #6158	; 0x180e
    3078:	e24b1004 	sub	r1, r11, #4
    307c:	e0813003 	add	r3, r1, r3
    3080:	e0832002 	add	r2, r3, r2
    3084:	e30e38e4 	movw	r3, #59620	; 0xe8e4
    3088:	e34f3fff 	movt	r3, #65535	; 0xffff
    308c:	e1c230b0 	strh	r3, [r2]
    3090:	e3003af8 	movw	r3, #2808	; 0xaf8
    3094:	e34f3fff 	movt	r3, #65535	; 0xffff
    3098:	e3012810 	movw	r2, #6160	; 0x1810
    309c:	e24b1004 	sub	r1, r11, #4
    30a0:	e0813003 	add	r3, r1, r3
    30a4:	e0832002 	add	r2, r3, r2
    30a8:	e30e38e4 	movw	r3, #59620	; 0xe8e4
    30ac:	e34f3fff 	movt	r3, #65535	; 0xffff
    30b0:	e1c230b0 	strh	r3, [r2]
    30b4:	e3003af8 	movw	r3, #2808	; 0xaf8
    30b8:	e34f3fff 	movt	r3, #65535	; 0xffff
    30bc:	e3012812 	movw	r2, #6162	; 0x1812
    30c0:	e24b1004 	sub	r1, r11, #4
    30c4:	e0813003 	add	r3, r1, r3
    30c8:	e0832002 	add	r2, r3, r2
    30cc:	e30e38e4 	movw	r3, #59620	; 0xe8e4
    30d0:	e34f3fff 	movt	r3, #65535	; 0xffff
    30d4:	e1c230b0 	strh	r3, [r2]
    30d8:	e3003af8 	movw	r3, #2808	; 0xaf8
    30dc:	e34f3fff 	movt	r3, #65535	; 0xffff
    30e0:	e3012814 	movw	r2, #6164	; 0x1814
    30e4:	e24b1004 	sub	r1, r11, #4
    30e8:	e0813003 	add	r3, r1, r3
    30ec:	e0832002 	add	r2, r3, r2
    30f0:	e30e38e4 	movw	r3, #59620	; 0xe8e4
    30f4:	e34f3fff 	movt	r3, #65535	; 0xffff
    30f8:	e1c230b0 	strh	r3, [r2]
    30fc:	e3003af8 	movw	r3, #2808	; 0xaf8
    3100:	e34f3fff 	movt	r3, #65535	; 0xffff
    3104:	e3012838 	movw	r2, #6200	; 0x1838
    3108:	e24b1004 	sub	r1, r11, #4
    310c:	e0813003 	add	r3, r1, r3
    3110:	e0833002 	add	r3, r3, r2
    3114:	e3e0207f 	mvn	r2, #127	; 0x7f
    3118:	e1c320b0 	strh	r2, [r3]
    311c:	e3003af8 	movw	r3, #2808	; 0xaf8
    3120:	e34f3fff 	movt	r3, #65535	; 0xffff
    3124:	e301289a 	movw	r2, #6298	; 0x189a
    3128:	e24b1004 	sub	r1, r11, #4
    312c:	e0813003 	add	r3, r1, r3
    3130:	e0832002 	add	r2, r3, r2
    3134:	e30b3724 	movw	r3, #46884	; 0xb724
    3138:	e34f3fff 	movt	r3, #65535	; 0xffff
    313c:	e1c230b0 	strh	r3, [r2]
    3140:	e3003af8 	movw	r3, #2808	; 0xaf8
    3144:	e34f3fff 	movt	r3, #65535	; 0xffff
    3148:	e301289c 	movw	r2, #6300	; 0x189c
    314c:	e24b1004 	sub	r1, r11, #4
    3150:	e0813003 	add	r3, r1, r3
    3154:	e0832002 	add	r2, r3, r2
    3158:	e30b3724 	movw	r3, #46884	; 0xb724
    315c:	e34f3fff 	movt	r3, #65535	; 0xffff
    3160:	e1c230b0 	strh	r3, [r2]
    3164:	e3003af8 	movw	r3, #2808	; 0xaf8
    3168:	e34f3fff 	movt	r3, #65535	; 0xffff
    316c:	e30128a4 	movw	r2, #6308	; 0x18a4
    3170:	e24b1004 	sub	r1, r11, #4
    3174:	e0813003 	add	r3, r1, r3
    3178:	e0833002 	add	r3, r3, r2
    317c:	e3e0207f 	mvn	r2, #127	; 0x7f
    3180:	e1c320b0 	strh	r2, [r3]
    3184:	e3003af8 	movw	r3, #2808	; 0xaf8
    3188:	e34f3fff 	movt	r3, #65535	; 0xffff
    318c:	e30128d2 	movw	r2, #6354	; 0x18d2
    3190:	e24b1004 	sub	r1, r11, #4
    3194:	e0813003 	add	r3, r1, r3
    3198:	e0832002 	add	r2, r3, r2
    319c:	e30e38e4 	movw	r3, #59620	; 0xe8e4
    31a0:	e34f3fff 	movt	r3, #65535	; 0xffff
    31a4:	e1c230b0 	strh	r3, [r2]
    31a8:	e3003af8 	movw	r3, #2808	; 0xaf8
    31ac:	e34f3fff 	movt	r3, #65535	; 0xffff
    31b0:	e30128d4 	movw	r2, #6356	; 0x18d4
    31b4:	e24b1004 	sub	r1, r11, #4
    31b8:	e0813003 	add	r3, r1, r3
    31bc:	e0832002 	add	r2, r3, r2
    31c0:	e30e38e4 	movw	r3, #59620	; 0xe8e4
    31c4:	e34f3fff 	movt	r3, #65535	; 0xffff
    31c8:	e1c230b0 	strh	r3, [r2]
    31cc:	e3003af8 	movw	r3, #2808	; 0xaf8
    31d0:	e34f3fff 	movt	r3, #65535	; 0xffff
    31d4:	e30128d6 	movw	r2, #6358	; 0x18d6
    31d8:	e24b1004 	sub	r1, r11, #4
    31dc:	e0813003 	add	r3, r1, r3
    31e0:	e0832002 	add	r2, r3, r2
    31e4:	e30e38e4 	movw	r3, #59620	; 0xe8e4
    31e8:	e34f3fff 	movt	r3, #65535	; 0xffff
    31ec:	e1c230b0 	strh	r3, [r2]
    31f0:	e3003af8 	movw	r3, #2808	; 0xaf8
    31f4:	e34f3fff 	movt	r3, #65535	; 0xffff
    31f8:	e30128d8 	movw	r2, #6360	; 0x18d8
    31fc:	e24b1004 	sub	r1, r11, #4
    3200:	e0813003 	add	r3, r1, r3
    3204:	e0832002 	add	r2, r3, r2
    3208:	e30e38e4 	movw	r3, #59620	; 0xe8e4
    320c:	e34f3fff 	movt	r3, #65535	; 0xffff
    3210:	e1c230b0 	strh	r3, [r2]
    3214:	e3003af8 	movw	r3, #2808	; 0xaf8
    3218:	e34f3fff 	movt	r3, #65535	; 0xffff
    321c:	e30128da 	movw	r2, #6362	; 0x18da
    3220:	e24b1004 	sub	r1, r11, #4
    3224:	e0813003 	add	r3, r1, r3
    3228:	e0832002 	add	r2, r3, r2
    322c:	e30e38e4 	movw	r3, #59620	; 0xe8e4
    3230:	e34f3fff 	movt	r3, #65535	; 0xffff
    3234:	e1c230b0 	strh	r3, [r2]
    3238:	e3003af8 	movw	r3, #2808	; 0xaf8
    323c:	e34f3fff 	movt	r3, #65535	; 0xffff
    3240:	e30128fc 	movw	r2, #6396	; 0x18fc
    3244:	e24b1004 	sub	r1, r11, #4
    3248:	e0813003 	add	r3, r1, r3
    324c:	e0833002 	add	r3, r3, r2
    3250:	e3e0207f 	mvn	r2, #127	; 0x7f
    3254:	e1c320b0 	strh	r2, [r3]
    3258:	e3003af8 	movw	r3, #2808	; 0xaf8
    325c:	e34f3fff 	movt	r3, #65535	; 0xffff
    3260:	e3012968 	movw	r2, #6504	; 0x1968
    3264:	e24b1004 	sub	r1, r11, #4
    3268:	e0813003 	add	r3, r1, r3
    326c:	e0833002 	add	r3, r3, r2
    3270:	e3e0207f 	mvn	r2, #127	; 0x7f
    3274:	e1c320b0 	strh	r2, [r3]
    3278:	e3003af8 	movw	r3, #2808	; 0xaf8
    327c:	e34f3fff 	movt	r3, #65535	; 0xffff
    3280:	e3012998 	movw	r2, #6552	; 0x1998
    3284:	e24b1004 	sub	r1, r11, #4
    3288:	e0813003 	add	r3, r1, r3
    328c:	e0832002 	add	r2, r3, r2
    3290:	e30e38e4 	movw	r3, #59620	; 0xe8e4
    3294:	e34f3fff 	movt	r3, #65535	; 0xffff
    3298:	e1c230b0 	strh	r3, [r2]
    329c:	e3003af8 	movw	r3, #2808	; 0xaf8
    32a0:	e34f3fff 	movt	r3, #65535	; 0xffff
    32a4:	e301299a 	movw	r2, #6554	; 0x199a
    32a8:	e24b1004 	sub	r1, r11, #4
    32ac:	e0813003 	add	r3, r1, r3
    32b0:	e0832002 	add	r2, r3, r2
    32b4:	e30e38e4 	movw	r3, #59620	; 0xe8e4
    32b8:	e34f3fff 	movt	r3, #65535	; 0xffff
    32bc:	e1c230b0 	strh	r3, [r2]
    32c0:	e3003af8 	movw	r3, #2808	; 0xaf8
    32c4:	e34f3fff 	movt	r3, #65535	; 0xffff
    32c8:	e301299c 	movw	r2, #6556	; 0x199c
    32cc:	e24b1004 	sub	r1, r11, #4
    32d0:	e0813003 	add	r3, r1, r3
    32d4:	e0832002 	add	r2, r3, r2
    32d8:	e30e38e4 	movw	r3, #59620	; 0xe8e4
    32dc:	e34f3fff 	movt	r3, #65535	; 0xffff
    32e0:	e1c230b0 	strh	r3, [r2]
    32e4:	e3003af8 	movw	r3, #2808	; 0xaf8
    32e8:	e34f3fff 	movt	r3, #65535	; 0xffff
    32ec:	e301299e 	movw	r2, #6558	; 0x199e
    32f0:	e24b1004 	sub	r1, r11, #4
    32f4:	e0813003 	add	r3, r1, r3
    32f8:	e0832002 	add	r2, r3, r2
    32fc:	e30e38e4 	movw	r3, #59620	; 0xe8e4
    3300:	e34f3fff 	movt	r3, #65535	; 0xffff
    3304:	e1c230b0 	strh	r3, [r2]
    3308:	e3003af8 	movw	r3, #2808	; 0xaf8
    330c:	e34f3fff 	movt	r3, #65535	; 0xffff
    3310:	e30129a0 	movw	r2, #6560	; 0x19a0
    3314:	e24b1004 	sub	r1, r11, #4
    3318:	e0813003 	add	r3, r1, r3
    331c:	e0832002 	add	r2, r3, r2
    3320:	e30e38e4 	movw	r3, #59620	; 0xe8e4
    3324:	e34f3fff 	movt	r3, #65535	; 0xffff
    3328:	e1c230b0 	strh	r3, [r2]
    332c:	e3003af8 	movw	r3, #2808	; 0xaf8
    3330:	e34f3fff 	movt	r3, #65535	; 0xffff
    3334:	e3a02d67 	mov	r2, #6592	; 0x19c0
    3338:	e24b1004 	sub	r1, r11, #4
    333c:	e0813003 	add	r3, r1, r3
    3340:	e0833002 	add	r3, r3, r2
    3344:	e3e0207f 	mvn	r2, #127	; 0x7f
    3348:	e1c320b0 	strh	r2, [r3]
    334c:	e3003af8 	movw	r3, #2808	; 0xaf8
    3350:	e34f3fff 	movt	r3, #65535	; 0xffff
    3354:	e3012a2c 	movw	r2, #6700	; 0x1a2c
    3358:	e24b1004 	sub	r1, r11, #4
    335c:	e0813003 	add	r3, r1, r3
    3360:	e0833002 	add	r3, r3, r2
    3364:	e3e0207f 	mvn	r2, #127	; 0x7f
    3368:	e1c320b0 	strh	r2, [r3]
    336c:	e3003af8 	movw	r3, #2808	; 0xaf8
    3370:	e34f3fff 	movt	r3, #65535	; 0xffff
    3374:	e3012a5e 	movw	r2, #6750	; 0x1a5e
    3378:	e24b1004 	sub	r1, r11, #4
    337c:	e0813003 	add	r3, r1, r3
    3380:	e0832002 	add	r2, r3, r2
    3384:	e30e38e4 	movw	r3, #59620	; 0xe8e4
    3388:	e34f3fff 	movt	r3, #65535	; 0xffff
    338c:	e1c230b0 	strh	r3, [r2]
    3390:	e3003af8 	movw	r3, #2808	; 0xaf8
    3394:	e34f3fff 	movt	r3, #65535	; 0xffff
    3398:	e3012a60 	movw	r2, #6752	; 0x1a60
    339c:	e24b1004 	sub	r1, r11, #4
    33a0:	e0813003 	add	r3, r1, r3
    33a4:	e0832002 	add	r2, r3, r2
    33a8:	e30e38e4 	movw	r3, #59620	; 0xe8e4
    33ac:	e34f3fff 	movt	r3, #65535	; 0xffff
    33b0:	e1c230b0 	strh	r3, [r2]
    33b4:	e3003af8 	movw	r3, #2808	; 0xaf8
    33b8:	e34f3fff 	movt	r3, #65535	; 0xffff
    33bc:	e3012a62 	movw	r2, #6754	; 0x1a62
    33c0:	e24b1004 	sub	r1, r11, #4
    33c4:	e0813003 	add	r3, r1, r3
    33c8:	e0832002 	add	r2, r3, r2
    33cc:	e30e38e4 	movw	r3, #59620	; 0xe8e4
    33d0:	e34f3fff 	movt	r3, #65535	; 0xffff
    33d4:	e1c230b0 	strh	r3, [r2]
    33d8:	e3003af8 	movw	r3, #2808	; 0xaf8
    33dc:	e34f3fff 	movt	r3, #65535	; 0xffff
    33e0:	e3012a64 	movw	r2, #6756	; 0x1a64
    33e4:	e24b1004 	sub	r1, r11, #4
    33e8:	e0813003 	add	r3, r1, r3
    33ec:	e0832002 	add	r2, r3, r2
    33f0:	e30e38e4 	movw	r3, #59620	; 0xe8e4
    33f4:	e34f3fff 	movt	r3, #65535	; 0xffff
    33f8:	e1c230b0 	strh	r3, [r2]
    33fc:	e3003af8 	movw	r3, #2808	; 0xaf8
    3400:	e34f3fff 	movt	r3, #65535	; 0xffff
    3404:	e3012a66 	movw	r2, #6758	; 0x1a66
    3408:	e24b1004 	sub	r1, r11, #4
    340c:	e0813003 	add	r3, r1, r3
    3410:	e0832002 	add	r2, r3, r2
    3414:	e30e38e4 	movw	r3, #59620	; 0xe8e4
    3418:	e34f3fff 	movt	r3, #65535	; 0xffff
    341c:	e1c230b0 	strh	r3, [r2]
    3420:	e3003af8 	movw	r3, #2808	; 0xaf8
    3424:	e34f3fff 	movt	r3, #65535	; 0xffff
    3428:	e3012a84 	movw	r2, #6788	; 0x1a84
    342c:	e24b1004 	sub	r1, r11, #4
    3430:	e0813003 	add	r3, r1, r3
    3434:	e0833002 	add	r3, r3, r2
    3438:	e3e0207f 	mvn	r2, #127	; 0x7f
    343c:	e1c320b0 	strh	r2, [r3]
    3440:	e3003af8 	movw	r3, #2808	; 0xaf8
    3444:	e34f3fff 	movt	r3, #65535	; 0xffff
    3448:	e3012af0 	movw	r2, #6896	; 0x1af0
    344c:	e24b1004 	sub	r1, r11, #4
    3450:	e0813003 	add	r3, r1, r3
    3454:	e0833002 	add	r3, r3, r2
    3458:	e3e0207f 	mvn	r2, #127	; 0x7f
    345c:	e1c320b0 	strh	r2, [r3]
    3460:	e3003af8 	movw	r3, #2808	; 0xaf8
    3464:	e34f3fff 	movt	r3, #65535	; 0xffff
    3468:	e3012b22 	movw	r2, #6946	; 0x1b22
    346c:	e24b1004 	sub	r1, r11, #4
    3470:	e0813003 	add	r3, r1, r3
    3474:	e0832002 	add	r2, r3, r2
    3478:	e30e38e4 	movw	r3, #59620	; 0xe8e4
    347c:	e34f3fff 	movt	r3, #65535	; 0xffff
    3480:	e1c230b0 	strh	r3, [r2]
    3484:	e3003af8 	movw	r3, #2808	; 0xaf8
    3488:	e34f3fff 	movt	r3, #65535	; 0xffff
    348c:	e3012b24 	movw	r2, #6948	; 0x1b24
    3490:	e24b1004 	sub	r1, r11, #4
    3494:	e0813003 	add	r3, r1, r3
    3498:	e0832002 	add	r2, r3, r2
    349c:	e30e38e4 	movw	r3, #59620	; 0xe8e4
    34a0:	e34f3fff 	movt	r3, #65535	; 0xffff
    34a4:	e1c230b0 	strh	r3, [r2]
    34a8:	e3003af8 	movw	r3, #2808	; 0xaf8
    34ac:	e34f3fff 	movt	r3, #65535	; 0xffff
    34b0:	e3012b26 	movw	r2, #6950	; 0x1b26
    34b4:	e24b1004 	sub	r1, r11, #4
    34b8:	e0813003 	add	r3, r1, r3
    34bc:	e0832002 	add	r2, r3, r2
    34c0:	e30e38e4 	movw	r3, #59620	; 0xe8e4
    34c4:	e34f3fff 	movt	r3, #65535	; 0xffff
    34c8:	e1c230b0 	strh	r3, [r2]
    34cc:	e3003af8 	movw	r3, #2808	; 0xaf8
    34d0:	e34f3fff 	movt	r3, #65535	; 0xffff
    34d4:	e3012b28 	movw	r2, #6952	; 0x1b28
    34d8:	e24b1004 	sub	r1, r11, #4
    34dc:	e0813003 	add	r3, r1, r3
    34e0:	e0832002 	add	r2, r3, r2
    34e4:	e30e38e4 	movw	r3, #59620	; 0xe8e4
    34e8:	e34f3fff 	movt	r3, #65535	; 0xffff
    34ec:	e1c230b0 	strh	r3, [r2]
    34f0:	e3003af8 	movw	r3, #2808	; 0xaf8
    34f4:	e34f3fff 	movt	r3, #65535	; 0xffff
    34f8:	e3012b2a 	movw	r2, #6954	; 0x1b2a
    34fc:	e24b1004 	sub	r1, r11, #4
    3500:	e0813003 	add	r3, r1, r3
    3504:	e0832002 	add	r2, r3, r2
    3508:	e30e38e4 	movw	r3, #59620	; 0xe8e4
    350c:	e34f3fff 	movt	r3, #65535	; 0xffff
    3510:	e1c230b0 	strh	r3, [r2]
    3514:	e3003af8 	movw	r3, #2808	; 0xaf8
    3518:	e34f3fff 	movt	r3, #65535	; 0xffff
    351c:	e3012b2c 	movw	r2, #6956	; 0x1b2c
    3520:	e24b1004 	sub	r1, r11, #4
    3524:	e0813003 	add	r3, r1, r3
    3528:	e0832002 	add	r2, r3, r2
    352c:	e30e38e4 	movw	r3, #59620	; 0xe8e4
    3530:	e34f3fff 	movt	r3, #65535	; 0xffff
    3534:	e1c230b0 	strh	r3, [r2]
    3538:	e3003af8 	movw	r3, #2808	; 0xaf8
    353c:	e34f3fff 	movt	r3, #65535	; 0xffff
    3540:	e3012b48 	movw	r2, #6984	; 0x1b48
    3544:	e24b1004 	sub	r1, r11, #4
    3548:	e0813003 	add	r3, r1, r3
    354c:	e0833002 	add	r3, r3, r2
    3550:	e3e0207f 	mvn	r2, #127	; 0x7f
    3554:	e1c320b0 	strh	r2, [r3]
    3558:	e3003af8 	movw	r3, #2808	; 0xaf8
    355c:	e34f3fff 	movt	r3, #65535	; 0xffff
    3560:	e3012bb4 	movw	r2, #7092	; 0x1bb4
    3564:	e24b1004 	sub	r1, r11, #4
    3568:	e0813003 	add	r3, r1, r3
    356c:	e0833002 	add	r3, r3, r2
    3570:	e3e0207f 	mvn	r2, #127	; 0x7f
    3574:	e1c320b0 	strh	r2, [r3]
    3578:	e3003af8 	movw	r3, #2808	; 0xaf8
    357c:	e34f3fff 	movt	r3, #65535	; 0xffff
    3580:	e3012bea 	movw	r2, #7146	; 0x1bea
    3584:	e24b1004 	sub	r1, r11, #4
    3588:	e0813003 	add	r3, r1, r3
    358c:	e0832002 	add	r2, r3, r2
    3590:	e30e38e4 	movw	r3, #59620	; 0xe8e4
    3594:	e34f3fff 	movt	r3, #65535	; 0xffff
    3598:	e1c230b0 	strh	r3, [r2]
    359c:	e3003af8 	movw	r3, #2808	; 0xaf8
    35a0:	e34f3fff 	movt	r3, #65535	; 0xffff
    35a4:	e3012bec 	movw	r2, #7148	; 0x1bec
    35a8:	e24b1004 	sub	r1, r11, #4
    35ac:	e0813003 	add	r3, r1, r3
    35b0:	e0832002 	add	r2, r3, r2
    35b4:	e30e38e4 	movw	r3, #59620	; 0xe8e4
    35b8:	e34f3fff 	movt	r3, #65535	; 0xffff
    35bc:	e1c230b0 	strh	r3, [r2]
    35c0:	e3003af8 	movw	r3, #2808	; 0xaf8
    35c4:	e34f3fff 	movt	r3, #65535	; 0xffff
    35c8:	e3012bee 	movw	r2, #7150	; 0x1bee
    35cc:	e24b1004 	sub	r1, r11, #4
    35d0:	e0813003 	add	r3, r1, r3
    35d4:	e0832002 	add	r2, r3, r2
    35d8:	e30e38e4 	movw	r3, #59620	; 0xe8e4
    35dc:	e34f3fff 	movt	r3, #65535	; 0xffff
    35e0:	e1c230b0 	strh	r3, [r2]
    35e4:	e3003af8 	movw	r3, #2808	; 0xaf8
    35e8:	e34f3fff 	movt	r3, #65535	; 0xffff
    35ec:	e3012bf0 	movw	r2, #7152	; 0x1bf0
    35f0:	e24b1004 	sub	r1, r11, #4
    35f4:	e0813003 	add	r3, r1, r3
    35f8:	e0832002 	add	r2, r3, r2
    35fc:	e30e38e4 	movw	r3, #59620	; 0xe8e4
    3600:	e34f3fff 	movt	r3, #65535	; 0xffff
    3604:	e1c230b0 	strh	r3, [r2]
    3608:	e3003af8 	movw	r3, #2808	; 0xaf8
    360c:	e34f3fff 	movt	r3, #65535	; 0xffff
    3610:	e3012bf2 	movw	r2, #7154	; 0x1bf2
    3614:	e24b1004 	sub	r1, r11, #4
    3618:	e0813003 	add	r3, r1, r3
    361c:	e0832002 	add	r2, r3, r2
    3620:	e30e38e4 	movw	r3, #59620	; 0xe8e4
    3624:	e34f3fff 	movt	r3, #65535	; 0xffff
    3628:	e1c230b0 	strh	r3, [r2]
    362c:	e3003af8 	movw	r3, #2808	; 0xaf8
    3630:	e34f3fff 	movt	r3, #65535	; 0xffff
    3634:	e3012c0c 	movw	r2, #7180	; 0x1c0c
    3638:	e24b1004 	sub	r1, r11, #4
    363c:	e0813003 	add	r3, r1, r3
    3640:	e0833002 	add	r3, r3, r2
    3644:	e3e0207f 	mvn	r2, #127	; 0x7f
    3648:	e1c320b0 	strh	r2, [r3]
    364c:	e3003af8 	movw	r3, #2808	; 0xaf8
    3650:	e34f3fff 	movt	r3, #65535	; 0xffff
    3654:	e3012c78 	movw	r2, #7288	; 0x1c78
    3658:	e24b1004 	sub	r1, r11, #4
    365c:	e0813003 	add	r3, r1, r3
    3660:	e0833002 	add	r3, r3, r2
    3664:	e3e0207f 	mvn	r2, #127	; 0x7f
    3668:	e1c320b0 	strh	r2, [r3]
    366c:	e3003af8 	movw	r3, #2808	; 0xaf8
    3670:	e34f3fff 	movt	r3, #65535	; 0xffff
    3674:	e3012cb0 	movw	r2, #7344	; 0x1cb0
    3678:	e24b1004 	sub	r1, r11, #4
    367c:	e0813003 	add	r3, r1, r3
    3680:	e0832002 	add	r2, r3, r2
    3684:	e30e38e4 	movw	r3, #59620	; 0xe8e4
    3688:	e34f3fff 	movt	r3, #65535	; 0xffff
    368c:	e1c230b0 	strh	r3, [r2]
    3690:	e3003af8 	movw	r3, #2808	; 0xaf8
    3694:	e34f3fff 	movt	r3, #65535	; 0xffff
    3698:	e3012cb2 	movw	r2, #7346	; 0x1cb2
    369c:	e24b1004 	sub	r1, r11, #4
    36a0:	e0813003 	add	r3, r1, r3
    36a4:	e0832002 	add	r2, r3, r2
    36a8:	e30e38e4 	movw	r3, #59620	; 0xe8e4
    36ac:	e34f3fff 	movt	r3, #65535	; 0xffff
    36b0:	e1c230b0 	strh	r3, [r2]
    36b4:	e3003af8 	movw	r3, #2808	; 0xaf8
    36b8:	e34f3fff 	movt	r3, #65535	; 0xffff
    36bc:	e3012cb4 	movw	r2, #7348	; 0x1cb4
    36c0:	e24b1004 	sub	r1, r11, #4
    36c4:	e0813003 	add	r3, r1, r3
    36c8:	e0832002 	add	r2, r3, r2
    36cc:	e30e38e4 	movw	r3, #59620	; 0xe8e4
    36d0:	e34f3fff 	movt	r3, #65535	; 0xffff
    36d4:	e1c230b0 	strh	r3, [r2]
    36d8:	e3003af8 	movw	r3, #2808	; 0xaf8
    36dc:	e34f3fff 	movt	r3, #65535	; 0xffff
    36e0:	e3012cb6 	movw	r2, #7350	; 0x1cb6
    36e4:	e24b1004 	sub	r1, r11, #4
    36e8:	e0813003 	add	r3, r1, r3
    36ec:	e0832002 	add	r2, r3, r2
    36f0:	e30e38e4 	movw	r3, #59620	; 0xe8e4
    36f4:	e34f3fff 	movt	r3, #65535	; 0xffff
    36f8:	e1c230b0 	strh	r3, [r2]
    36fc:	e3003af8 	movw	r3, #2808	; 0xaf8
    3700:	e34f3fff 	movt	r3, #65535	; 0xffff
    3704:	e3012cd0 	movw	r2, #7376	; 0x1cd0
    3708:	e24b1004 	sub	r1, r11, #4
    370c:	e0813003 	add	r3, r1, r3
    3710:	e0833002 	add	r3, r3, r2
    3714:	e3e0207f 	mvn	r2, #127	; 0x7f
    3718:	e1c320b0 	strh	r2, [r3]
    371c:	e3003af8 	movw	r3, #2808	; 0xaf8
    3720:	e34f3fff 	movt	r3, #65535	; 0xffff
    3724:	e3012d3c 	movw	r2, #7484	; 0x1d3c
    3728:	e24b1004 	sub	r1, r11, #4
    372c:	e0813003 	add	r3, r1, r3
    3730:	e0833002 	add	r3, r3, r2
    3734:	e3e0207f 	mvn	r2, #127	; 0x7f
    3738:	e1c320b0 	strh	r2, [r3]
    373c:	e3003af8 	movw	r3, #2808	; 0xaf8
    3740:	e34f3fff 	movt	r3, #65535	; 0xffff
    3744:	e3012d76 	movw	r2, #7542	; 0x1d76
    3748:	e24b1004 	sub	r1, r11, #4
    374c:	e0813003 	add	r3, r1, r3
    3750:	e0832002 	add	r2, r3, r2
    3754:	e30e38e4 	movw	r3, #59620	; 0xe8e4
    3758:	e34f3fff 	movt	r3, #65535	; 0xffff
    375c:	e1c230b0 	strh	r3, [r2]
    3760:	e3003af8 	movw	r3, #2808	; 0xaf8
    3764:	e34f3fff 	movt	r3, #65535	; 0xffff
    3768:	e3012d78 	movw	r2, #7544	; 0x1d78
    376c:	e24b1004 	sub	r1, r11, #4
    3770:	e0813003 	add	r3, r1, r3
    3774:	e0832002 	add	r2, r3, r2
    3778:	e30e38e4 	movw	r3, #59620	; 0xe8e4
    377c:	e34f3fff 	movt	r3, #65535	; 0xffff
    3780:	e1c230b0 	strh	r3, [r2]
    3784:	e3003af8 	movw	r3, #2808	; 0xaf8
    3788:	e34f3fff 	movt	r3, #65535	; 0xffff
    378c:	e3012d7a 	movw	r2, #7546	; 0x1d7a
    3790:	e24b1004 	sub	r1, r11, #4
    3794:	e0813003 	add	r3, r1, r3
    3798:	e0832002 	add	r2, r3, r2
    379c:	e30e38e4 	movw	r3, #59620	; 0xe8e4
    37a0:	e34f3fff 	movt	r3, #65535	; 0xffff
    37a4:	e1c230b0 	strh	r3, [r2]
    37a8:	e3003af8 	movw	r3, #2808	; 0xaf8
    37ac:	e34f3fff 	movt	r3, #65535	; 0xffff
    37b0:	e3012d7c 	movw	r2, #7548	; 0x1d7c
    37b4:	e24b1004 	sub	r1, r11, #4
    37b8:	e0813003 	add	r3, r1, r3
    37bc:	e0832002 	add	r2, r3, r2
    37c0:	e30e38e4 	movw	r3, #59620	; 0xe8e4
    37c4:	e34f3fff 	movt	r3, #65535	; 0xffff
    37c8:	e1c230b0 	strh	r3, [r2]
    37cc:	e3003af8 	movw	r3, #2808	; 0xaf8
    37d0:	e34f3fff 	movt	r3, #65535	; 0xffff
    37d4:	e3012d94 	movw	r2, #7572	; 0x1d94
    37d8:	e24b1004 	sub	r1, r11, #4
    37dc:	e0813003 	add	r3, r1, r3
    37e0:	e0833002 	add	r3, r3, r2
    37e4:	e3e0207f 	mvn	r2, #127	; 0x7f
    37e8:	e1c320b0 	strh	r2, [r3]
    37ec:	e3003af8 	movw	r3, #2808	; 0xaf8
    37f0:	e34f3fff 	movt	r3, #65535	; 0xffff
    37f4:	e3a02c1e 	mov	r2, #7680	; 0x1e00
    37f8:	e24b1004 	sub	r1, r11, #4
    37fc:	e0813003 	add	r3, r1, r3
    3800:	e0833002 	add	r3, r3, r2
    3804:	e3e0207f 	mvn	r2, #127	; 0x7f
    3808:	e1c320b0 	strh	r2, [r3]
    380c:	e3003af8 	movw	r3, #2808	; 0xaf8
    3810:	e34f3fff 	movt	r3, #65535	; 0xffff
    3814:	e3012e3a 	movw	r2, #7738	; 0x1e3a
    3818:	e24b1004 	sub	r1, r11, #4
    381c:	e0813003 	add	r3, r1, r3
    3820:	e0832002 	add	r2, r3, r2
    3824:	e30e38e4 	movw	r3, #59620	; 0xe8e4
    3828:	e34f3fff 	movt	r3, #65535	; 0xffff
    382c:	e1c230b0 	strh	r3, [r2]
    3830:	e3003af8 	movw	r3, #2808	; 0xaf8
    3834:	e34f3fff 	movt	r3, #65535	; 0xffff
    3838:	e3012e3c 	movw	r2, #7740	; 0x1e3c
    383c:	e24b1004 	sub	r1, r11, #4
    3840:	e0813003 	add	r3, r1, r3
    3844:	e0832002 	add	r2, r3, r2
    3848:	e30e38e4 	movw	r3, #59620	; 0xe8e4
    384c:	e34f3fff 	movt	r3, #65535	; 0xffff
    3850:	e1c230b0 	strh	r3, [r2]
    3854:	e3003af8 	movw	r3, #2808	; 0xaf8
    3858:	e34f3fff 	movt	r3, #65535	; 0xffff
    385c:	e3012e3e 	movw	r2, #7742	; 0x1e3e
    3860:	e24b1004 	sub	r1, r11, #4
    3864:	e0813003 	add	r3, r1, r3
    3868:	e0832002 	add	r2, r3, r2
    386c:	e30e38e4 	movw	r3, #59620	; 0xe8e4
    3870:	e34f3fff 	movt	r3, #65535	; 0xffff
    3874:	e1c230b0 	strh	r3, [r2]
    3878:	e3003af8 	movw	r3, #2808	; 0xaf8
    387c:	e34f3fff 	movt	r3, #65535	; 0xffff
    3880:	e3a02d79 	mov	r2, #7744	; 0x1e40
    3884:	e24b1004 	sub	r1, r11, #4
    3888:	e0813003 	add	r3, r1, r3
    388c:	e0832002 	add	r2, r3, r2
    3890:	e30e38e4 	movw	r3, #59620	; 0xe8e4
    3894:	e34f3fff 	movt	r3, #65535	; 0xffff
    3898:	e1c230b0 	strh	r3, [r2]
    389c:	e3003af8 	movw	r3, #2808	; 0xaf8
    38a0:	e34f3fff 	movt	r3, #65535	; 0xffff
    38a4:	e3012e42 	movw	r2, #7746	; 0x1e42
    38a8:	e24b1004 	sub	r1, r11, #4
    38ac:	e0813003 	add	r3, r1, r3
    38b0:	e0832002 	add	r2, r3, r2
    38b4:	e30e38e4 	movw	r3, #59620	; 0xe8e4
    38b8:	e34f3fff 	movt	r3, #65535	; 0xffff
    38bc:	e1c230b0 	strh	r3, [r2]
    38c0:	e3003af8 	movw	r3, #2808	; 0xaf8
    38c4:	e34f3fff 	movt	r3, #65535	; 0xffff
    38c8:	e3012e44 	movw	r2, #7748	; 0x1e44
    38cc:	e24b1004 	sub	r1, r11, #4
    38d0:	e0813003 	add	r3, r1, r3
    38d4:	e0832002 	add	r2, r3, r2
    38d8:	e30e38e4 	movw	r3, #59620	; 0xe8e4
    38dc:	e34f3fff 	movt	r3, #65535	; 0xffff
    38e0:	e1c230b0 	strh	r3, [r2]
    38e4:	e3003af8 	movw	r3, #2808	; 0xaf8
    38e8:	e34f3fff 	movt	r3, #65535	; 0xffff
    38ec:	e3012e58 	movw	r2, #7768	; 0x1e58
    38f0:	e24b1004 	sub	r1, r11, #4
    38f4:	e0813003 	add	r3, r1, r3
    38f8:	e0833002 	add	r3, r3, r2
    38fc:	e3e0207f 	mvn	r2, #127	; 0x7f
    3900:	e1c320b0 	strh	r2, [r3]
    3904:	e3003af8 	movw	r3, #2808	; 0xaf8
    3908:	e34f3fff 	movt	r3, #65535	; 0xffff
    390c:	e3012ec4 	movw	r2, #7876	; 0x1ec4
    3910:	e24b1004 	sub	r1, r11, #4
    3914:	e0813003 	add	r3, r1, r3
    3918:	e0833002 	add	r3, r3, r2
    391c:	e3e0207f 	mvn	r2, #127	; 0x7f
    3920:	e1c320b0 	strh	r2, [r3]
    3924:	e3003af8 	movw	r3, #2808	; 0xaf8
    3928:	e34f3fff 	movt	r3, #65535	; 0xffff
    392c:	e3a02c1f 	mov	r2, #7936	; 0x1f00
    3930:	e24b1004 	sub	r1, r11, #4
    3934:	e0813003 	add	r3, r1, r3
    3938:	e0832002 	add	r2, r3, r2
    393c:	e30e38e4 	movw	r3, #59620	; 0xe8e4
    3940:	e34f3fff 	movt	r3, #65535	; 0xffff
    3944:	e1c230b0 	strh	r3, [r2]
    3948:	e3003af8 	movw	r3, #2808	; 0xaf8
    394c:	e34f3fff 	movt	r3, #65535	; 0xffff
    3950:	e3012f02 	movw	r2, #7938	; 0x1f02
    3954:	e24b1004 	sub	r1, r11, #4
    3958:	e0813003 	add	r3, r1, r3
    395c:	e0832002 	add	r2, r3, r2
    3960:	e30e38e4 	movw	r3, #59620	; 0xe8e4
    3964:	e34f3fff 	movt	r3, #65535	; 0xffff
    3968:	e1c230b0 	strh	r3, [r2]
    396c:	e3003af8 	movw	r3, #2808	; 0xaf8
    3970:	e34f3fff 	movt	r3, #65535	; 0xffff
    3974:	e3012f04 	movw	r2, #7940	; 0x1f04
    3978:	e24b1004 	sub	r1, r11, #4
    397c:	e0813003 	add	r3, r1, r3
    3980:	e0832002 	add	r2, r3, r2
    3984:	e30e38e4 	movw	r3, #59620	; 0xe8e4
    3988:	e34f3fff 	movt	r3, #65535	; 0xffff
    398c:	e1c230b0 	strh	r3, [r2]
    3990:	e3003af8 	movw	r3, #2808	; 0xaf8
    3994:	e34f3fff 	movt	r3, #65535	; 0xffff
    3998:	e3012f06 	movw	r2, #7942	; 0x1f06
    399c:	e24b1004 	sub	r1, r11, #4
    39a0:	e0813003 	add	r3, r1, r3
    39a4:	e0832002 	add	r2, r3, r2
    39a8:	e30e38e4 	movw	r3, #59620	; 0xe8e4
    39ac:	e34f3fff 	movt	r3, #65535	; 0xffff
    39b0:	e1c230b0 	strh	r3, [r2]
    39b4:	e3003af8 	movw	r3, #2808	; 0xaf8
    39b8:	e34f3fff 	movt	r3, #65535	; 0xffff
    39bc:	e3012f08 	movw	r2, #7944	; 0x1f08
    39c0:	e24b1004 	sub	r1, r11, #4
    39c4:	e0813003 	add	r3, r1, r3
    39c8:	e0832002 	add	r2, r3, r2
    39cc:	e30e38e4 	movw	r3, #59620	; 0xe8e4
    39d0:	e34f3fff 	movt	r3, #65535	; 0xffff
    39d4:	e1c230b0 	strh	r3, [r2]
    39d8:	e3003af8 	movw	r3, #2808	; 0xaf8
    39dc:	e34f3fff 	movt	r3, #65535	; 0xffff
    39e0:	e3012f1c 	movw	r2, #7964	; 0x1f1c
    39e4:	e24b1004 	sub	r1, r11, #4
    39e8:	e0813003 	add	r3, r1, r3
    39ec:	e0833002 	add	r3, r3, r2
    39f0:	e3e0207f 	mvn	r2, #127	; 0x7f
    39f4:	e1c320b0 	strh	r2, [r3]
    39f8:	e3003af8 	movw	r3, #2808	; 0xaf8
    39fc:	e34f3fff 	movt	r3, #65535	; 0xffff
    3a00:	e3012f88 	movw	r2, #8072	; 0x1f88
    3a04:	e24b1004 	sub	r1, r11, #4
    3a08:	e0813003 	add	r3, r1, r3
    3a0c:	e0833002 	add	r3, r3, r2
    3a10:	e3e0207f 	mvn	r2, #127	; 0x7f
    3a14:	e1c320b0 	strh	r2, [r3]
    3a18:	e3003af8 	movw	r3, #2808	; 0xaf8
    3a1c:	e34f3fff 	movt	r3, #65535	; 0xffff
    3a20:	e3012fc6 	movw	r2, #8134	; 0x1fc6
    3a24:	e24b1004 	sub	r1, r11, #4
    3a28:	e0813003 	add	r3, r1, r3
    3a2c:	e0832002 	add	r2, r3, r2
    3a30:	e30e38e4 	movw	r3, #59620	; 0xe8e4
    3a34:	e34f3fff 	movt	r3, #65535	; 0xffff
    3a38:	e1c230b0 	strh	r3, [r2]
    3a3c:	e3003af8 	movw	r3, #2808	; 0xaf8
    3a40:	e34f3fff 	movt	r3, #65535	; 0xffff
    3a44:	e3012fc8 	movw	r2, #8136	; 0x1fc8
    3a48:	e24b1004 	sub	r1, r11, #4
    3a4c:	e0813003 	add	r3, r1, r3
    3a50:	e0832002 	add	r2, r3, r2
    3a54:	e30e38e4 	movw	r3, #59620	; 0xe8e4
    3a58:	e34f3fff 	movt	r3, #65535	; 0xffff
    3a5c:	e1c230b0 	strh	r3, [r2]
    3a60:	e3003af8 	movw	r3, #2808	; 0xaf8
    3a64:	e34f3fff 	movt	r3, #65535	; 0xffff
    3a68:	e3012fca 	movw	r2, #8138	; 0x1fca
    3a6c:	e24b1004 	sub	r1, r11, #4
    3a70:	e0813003 	add	r3, r1, r3
    3a74:	e0832002 	add	r2, r3, r2
    3a78:	e30e38e4 	movw	r3, #59620	; 0xe8e4
    3a7c:	e34f3fff 	movt	r3, #65535	; 0xffff
    3a80:	e1c230b0 	strh	r3, [r2]
    3a84:	e3003af8 	movw	r3, #2808	; 0xaf8
    3a88:	e34f3fff 	movt	r3, #65535	; 0xffff
    3a8c:	e3012fcc 	movw	r2, #8140	; 0x1fcc
    3a90:	e24b1004 	sub	r1, r11, #4
    3a94:	e0813003 	add	r3, r1, r3
    3a98:	e0832002 	add	r2, r3, r2
    3a9c:	e30e38e4 	movw	r3, #59620	; 0xe8e4
    3aa0:	e34f3fff 	movt	r3, #65535	; 0xffff
    3aa4:	e1c230b0 	strh	r3, [r2]
    3aa8:	e3003af8 	movw	r3, #2808	; 0xaf8
    3aac:	e34f3fff 	movt	r3, #65535	; 0xffff
    3ab0:	e3012fe0 	movw	r2, #8160	; 0x1fe0
    3ab4:	e24b1004 	sub	r1, r11, #4
    3ab8:	e0813003 	add	r3, r1, r3
    3abc:	e0833002 	add	r3, r3, r2
    3ac0:	e3e0207f 	mvn	r2, #127	; 0x7f
    3ac4:	e1c320b0 	strh	r2, [r3]
    3ac8:	e3003af8 	movw	r3, #2808	; 0xaf8
    3acc:	e34f3fff 	movt	r3, #65535	; 0xffff
    3ad0:	e302204c 	movw	r2, #8268	; 0x204c
    3ad4:	e24b1004 	sub	r1, r11, #4
    3ad8:	e0813003 	add	r3, r1, r3
    3adc:	e0833002 	add	r3, r3, r2
    3ae0:	e3e0207f 	mvn	r2, #127	; 0x7f
    3ae4:	e1c320b0 	strh	r2, [r3]
    3ae8:	e3003af8 	movw	r3, #2808	; 0xaf8
    3aec:	e34f3fff 	movt	r3, #65535	; 0xffff
    3af0:	e302208c 	movw	r2, #8332	; 0x208c
    3af4:	e24b1004 	sub	r1, r11, #4
    3af8:	e0813003 	add	r3, r1, r3
    3afc:	e0832002 	add	r2, r3, r2
    3b00:	e30e38e4 	movw	r3, #59620	; 0xe8e4
    3b04:	e34f3fff 	movt	r3, #65535	; 0xffff
    3b08:	e1c230b0 	strh	r3, [r2]
    3b0c:	e3003af8 	movw	r3, #2808	; 0xaf8
    3b10:	e34f3fff 	movt	r3, #65535	; 0xffff
    3b14:	e302208e 	movw	r2, #8334	; 0x208e
    3b18:	e24b1004 	sub	r1, r11, #4
    3b1c:	e0813003 	add	r3, r1, r3
    3b20:	e0832002 	add	r2, r3, r2
    3b24:	e30e38e4 	movw	r3, #59620	; 0xe8e4
    3b28:	e34f3fff 	movt	r3, #65535	; 0xffff
    3b2c:	e1c230b0 	strh	r3, [r2]
    3b30:	e3003af8 	movw	r3, #2808	; 0xaf8
    3b34:	e34f3fff 	movt	r3, #65535	; 0xffff
    3b38:	e3022090 	movw	r2, #8336	; 0x2090
    3b3c:	e24b1004 	sub	r1, r11, #4
    3b40:	e0813003 	add	r3, r1, r3
    3b44:	e0832002 	add	r2, r3, r2
    3b48:	e30e38e4 	movw	r3, #59620	; 0xe8e4
    3b4c:	e34f3fff 	movt	r3, #65535	; 0xffff
    3b50:	e1c230b0 	strh	r3, [r2]
    3b54:	e3003af8 	movw	r3, #2808	; 0xaf8
    3b58:	e34f3fff 	movt	r3, #65535	; 0xffff
    3b5c:	e30220a4 	movw	r2, #8356	; 0x20a4
    3b60:	e24b1004 	sub	r1, r11, #4
    3b64:	e0813003 	add	r3, r1, r3
    3b68:	e0833002 	add	r3, r3, r2
    3b6c:	e3e0207f 	mvn	r2, #127	; 0x7f
    3b70:	e1c320b0 	strh	r2, [r3]
    3b74:	e3003af8 	movw	r3, #2808	; 0xaf8
    3b78:	e34f3fff 	movt	r3, #65535	; 0xffff
    3b7c:	e3022110 	movw	r2, #8464	; 0x2110
    3b80:	e24b1004 	sub	r1, r11, #4
    3b84:	e0813003 	add	r3, r1, r3
    3b88:	e0833002 	add	r3, r3, r2
    3b8c:	e3e0207f 	mvn	r2, #127	; 0x7f
    3b90:	e1c320b0 	strh	r2, [r3]
    3b94:	e3003af8 	movw	r3, #2808	; 0xaf8
    3b98:	e34f3fff 	movt	r3, #65535	; 0xffff
    3b9c:	e302214c 	movw	r2, #8524	; 0x214c
    3ba0:	e24b1004 	sub	r1, r11, #4
    3ba4:	e0813003 	add	r3, r1, r3
    3ba8:	e0832002 	add	r2, r3, r2
    3bac:	e30e38e4 	movw	r3, #59620	; 0xe8e4
    3bb0:	e34f3fff 	movt	r3, #65535	; 0xffff
    3bb4:	e1c230b0 	strh	r3, [r2]
    3bb8:	e3003af8 	movw	r3, #2808	; 0xaf8
    3bbc:	e34f3fff 	movt	r3, #65535	; 0xffff
    3bc0:	e302214e 	movw	r2, #8526	; 0x214e
    3bc4:	e24b1004 	sub	r1, r11, #4
    3bc8:	e0813003 	add	r3, r1, r3
    3bcc:	e0832002 	add	r2, r3, r2
    3bd0:	e30e38e4 	movw	r3, #59620	; 0xe8e4
    3bd4:	e34f3fff 	movt	r3, #65535	; 0xffff
    3bd8:	e1c230b0 	strh	r3, [r2]
    3bdc:	e3003af8 	movw	r3, #2808	; 0xaf8
    3be0:	e34f3fff 	movt	r3, #65535	; 0xffff
    3be4:	e3022150 	movw	r2, #8528	; 0x2150
    3be8:	e24b1004 	sub	r1, r11, #4
    3bec:	e0813003 	add	r3, r1, r3
    3bf0:	e0832002 	add	r2, r3, r2
    3bf4:	e30e38e4 	movw	r3, #59620	; 0xe8e4
    3bf8:	e34f3fff 	movt	r3, #65535	; 0xffff
    3bfc:	e1c230b0 	strh	r3, [r2]
    3c00:	e3003af8 	movw	r3, #2808	; 0xaf8
    3c04:	e34f3fff 	movt	r3, #65535	; 0xffff
    3c08:	e3022152 	movw	r2, #8530	; 0x2152
    3c0c:	e24b1004 	sub	r1, r11, #4
    3c10:	e0813003 	add	r3, r1, r3
    3c14:	e0832002 	add	r2, r3, r2
    3c18:	e30e38e4 	movw	r3, #59620	; 0xe8e4
    3c1c:	e34f3fff 	movt	r3, #65535	; 0xffff
    3c20:	e1c230b0 	strh	r3, [r2]
    3c24:	e3003af8 	movw	r3, #2808	; 0xaf8
    3c28:	e34f3fff 	movt	r3, #65535	; 0xffff
    3c2c:	e3022154 	movw	r2, #8532	; 0x2154
    3c30:	e24b1004 	sub	r1, r11, #4
    3c34:	e0813003 	add	r3, r1, r3
    3c38:	e0832002 	add	r2, r3, r2
    3c3c:	e30e38e4 	movw	r3, #59620	; 0xe8e4
    3c40:	e34f3fff 	movt	r3, #65535	; 0xffff
    3c44:	e1c230b0 	strh	r3, [r2]
    3c48:	e3003af8 	movw	r3, #2808	; 0xaf8
    3c4c:	e34f3fff 	movt	r3, #65535	; 0xffff
    3c50:	e3022168 	movw	r2, #8552	; 0x2168
    3c54:	e24b1004 	sub	r1, r11, #4
    3c58:	e0813003 	add	r3, r1, r3
    3c5c:	e0833002 	add	r3, r3, r2
    3c60:	e3e0207f 	mvn	r2, #127	; 0x7f
    3c64:	e1c320b0 	strh	r2, [r3]
    3c68:	e3003af8 	movw	r3, #2808	; 0xaf8
    3c6c:	e34f3fff 	movt	r3, #65535	; 0xffff
    3c70:	e30221d4 	movw	r2, #8660	; 0x21d4
    3c74:	e24b1004 	sub	r1, r11, #4
    3c78:	e0813003 	add	r3, r1, r3
    3c7c:	e0833002 	add	r3, r3, r2
    3c80:	e3e0207f 	mvn	r2, #127	; 0x7f
    3c84:	e1c320b0 	strh	r2, [r3]
    3c88:	e3003af8 	movw	r3, #2808	; 0xaf8
    3c8c:	e34f3fff 	movt	r3, #65535	; 0xffff
    3c90:	e3022204 	movw	r2, #8708	; 0x2204
    3c94:	e24b1004 	sub	r1, r11, #4
    3c98:	e0813003 	add	r3, r1, r3
    3c9c:	e0832002 	add	r2, r3, r2
    3ca0:	e30e38e4 	movw	r3, #59620	; 0xe8e4
    3ca4:	e34f3fff 	movt	r3, #65535	; 0xffff
    3ca8:	e1c230b0 	strh	r3, [r2]
    3cac:	e3003af8 	movw	r3, #2808	; 0xaf8
    3cb0:	e34f3fff 	movt	r3, #65535	; 0xffff
    3cb4:	e3022206 	movw	r2, #8710	; 0x2206
    3cb8:	e24b1004 	sub	r1, r11, #4
    3cbc:	e0813003 	add	r3, r1, r3
    3cc0:	e0832002 	add	r2, r3, r2
    3cc4:	e30e38e4 	movw	r3, #59620	; 0xe8e4
    3cc8:	e34f3fff 	movt	r3, #65535	; 0xffff
    3ccc:	e1c230b0 	strh	r3, [r2]
    3cd0:	e3003af8 	movw	r3, #2808	; 0xaf8
    3cd4:	e34f3fff 	movt	r3, #65535	; 0xffff
    3cd8:	e3022208 	movw	r2, #8712	; 0x2208
    3cdc:	e24b1004 	sub	r1, r11, #4
    3ce0:	e0813003 	add	r3, r1, r3
    3ce4:	e0832002 	add	r2, r3, r2
    3ce8:	e30e38e4 	movw	r3, #59620	; 0xe8e4
    3cec:	e34f3fff 	movt	r3, #65535	; 0xffff
    3cf0:	e1c230b0 	strh	r3, [r2]
    3cf4:	e3003af8 	movw	r3, #2808	; 0xaf8
    3cf8:	e34f3fff 	movt	r3, #65535	; 0xffff
    3cfc:	e302220a 	movw	r2, #8714	; 0x220a
    3d00:	e24b1004 	sub	r1, r11, #4
    3d04:	e0813003 	add	r3, r1, r3
    3d08:	e0832002 	add	r2, r3, r2
    3d0c:	e30e38e4 	movw	r3, #59620	; 0xe8e4
    3d10:	e34f3fff 	movt	r3, #65535	; 0xffff
    3d14:	e1c230b0 	strh	r3, [r2]
    3d18:	e3003af8 	movw	r3, #2808	; 0xaf8
    3d1c:	e34f3fff 	movt	r3, #65535	; 0xffff
    3d20:	e302220c 	movw	r2, #8716	; 0x220c
    3d24:	e24b1004 	sub	r1, r11, #4
    3d28:	e0813003 	add	r3, r1, r3
    3d2c:	e0832002 	add	r2, r3, r2
    3d30:	e30e38e4 	movw	r3, #59620	; 0xe8e4
    3d34:	e34f3fff 	movt	r3, #65535	; 0xffff
    3d38:	e1c230b0 	strh	r3, [r2]
    3d3c:	e3003af8 	movw	r3, #2808	; 0xaf8
    3d40:	e34f3fff 	movt	r3, #65535	; 0xffff
    3d44:	e302220e 	movw	r2, #8718	; 0x220e
    3d48:	e24b1004 	sub	r1, r11, #4
    3d4c:	e0813003 	add	r3, r1, r3
    3d50:	e0832002 	add	r2, r3, r2
    3d54:	e30e38e4 	movw	r3, #59620	; 0xe8e4
    3d58:	e34f3fff 	movt	r3, #65535	; 0xffff
    3d5c:	e1c230b0 	strh	r3, [r2]
    3d60:	e3003af8 	movw	r3, #2808	; 0xaf8
    3d64:	e34f3fff 	movt	r3, #65535	; 0xffff
    3d68:	e3022210 	movw	r2, #8720	; 0x2210
    3d6c:	e24b1004 	sub	r1, r11, #4
    3d70:	e0813003 	add	r3, r1, r3
    3d74:	e0832002 	add	r2, r3, r2
    3d78:	e30e38e4 	movw	r3, #59620	; 0xe8e4
    3d7c:	e34f3fff 	movt	r3, #65535	; 0xffff
    3d80:	e1c230b0 	strh	r3, [r2]
    3d84:	e3003af8 	movw	r3, #2808	; 0xaf8
    3d88:	e34f3fff 	movt	r3, #65535	; 0xffff
    3d8c:	e3022212 	movw	r2, #8722	; 0x2212
    3d90:	e24b1004 	sub	r1, r11, #4
    3d94:	e0813003 	add	r3, r1, r3
    3d98:	e0832002 	add	r2, r3, r2
    3d9c:	e30e38e4 	movw	r3, #59620	; 0xe8e4
    3da0:	e34f3fff 	movt	r3, #65535	; 0xffff
    3da4:	e1c230b0 	strh	r3, [r2]
    3da8:	e3003af8 	movw	r3, #2808	; 0xaf8
    3dac:	e34f3fff 	movt	r3, #65535	; 0xffff
    3db0:	e3022214 	movw	r2, #8724	; 0x2214
    3db4:	e24b1004 	sub	r1, r11, #4
    3db8:	e0813003 	add	r3, r1, r3
    3dbc:	e0832002 	add	r2, r3, r2
    3dc0:	e30e38e4 	movw	r3, #59620	; 0xe8e4
    3dc4:	e34f3fff 	movt	r3, #65535	; 0xffff
    3dc8:	e1c230b0 	strh	r3, [r2]
    3dcc:	e3003af8 	movw	r3, #2808	; 0xaf8
    3dd0:	e34f3fff 	movt	r3, #65535	; 0xffff
    3dd4:	e3022216 	movw	r2, #8726	; 0x2216
    3dd8:	e24b1004 	sub	r1, r11, #4
    3ddc:	e0813003 	add	r3, r1, r3
    3de0:	e0832002 	add	r2, r3, r2
    3de4:	e30e38e4 	movw	r3, #59620	; 0xe8e4
    3de8:	e34f3fff 	movt	r3, #65535	; 0xffff
    3dec:	e1c230b0 	strh	r3, [r2]
    3df0:	e3003af8 	movw	r3, #2808	; 0xaf8
    3df4:	e34f3fff 	movt	r3, #65535	; 0xffff
    3df8:	e3022218 	movw	r2, #8728	; 0x2218
    3dfc:	e24b1004 	sub	r1, r11, #4
    3e00:	e0813003 	add	r3, r1, r3
    3e04:	e0832002 	add	r2, r3, r2
    3e08:	e30e38e4 	movw	r3, #59620	; 0xe8e4
    3e0c:	e34f3fff 	movt	r3, #65535	; 0xffff
    3e10:	e1c230b0 	strh	r3, [r2]
    3e14:	e3003af8 	movw	r3, #2808	; 0xaf8
    3e18:	e34f3fff 	movt	r3, #65535	; 0xffff
    3e1c:	e302222c 	movw	r2, #8748	; 0x222c
    3e20:	e24b1004 	sub	r1, r11, #4
    3e24:	e0813003 	add	r3, r1, r3
    3e28:	e0833002 	add	r3, r3, r2
    3e2c:	e3e0207f 	mvn	r2, #127	; 0x7f
    3e30:	e1c320b0 	strh	r2, [r3]
    3e34:	e3003af8 	movw	r3, #2808	; 0xaf8
    3e38:	e34f3fff 	movt	r3, #65535	; 0xffff
    3e3c:	e3022296 	movw	r2, #8854	; 0x2296
    3e40:	e24b1004 	sub	r1, r11, #4
    3e44:	e0813003 	add	r3, r1, r3
    3e48:	e0833002 	add	r3, r3, r2
    3e4c:	e3e0207f 	mvn	r2, #127	; 0x7f
    3e50:	e1c320b0 	strh	r2, [r3]
    3e54:	e3003af8 	movw	r3, #2808	; 0xaf8
    3e58:	e34f3fff 	movt	r3, #65535	; 0xffff
    3e5c:	e30222c4 	movw	r2, #8900	; 0x22c4
    3e60:	e24b1004 	sub	r1, r11, #4
    3e64:	e0813003 	add	r3, r1, r3
    3e68:	e0832002 	add	r2, r3, r2
    3e6c:	e30e38e4 	movw	r3, #59620	; 0xe8e4
    3e70:	e34f3fff 	movt	r3, #65535	; 0xffff
    3e74:	e1c230b0 	strh	r3, [r2]
    3e78:	e3003af8 	movw	r3, #2808	; 0xaf8
    3e7c:	e34f3fff 	movt	r3, #65535	; 0xffff
    3e80:	e30222c6 	movw	r2, #8902	; 0x22c6
    3e84:	e24b1004 	sub	r1, r11, #4
    3e88:	e0813003 	add	r3, r1, r3
    3e8c:	e0832002 	add	r2, r3, r2
    3e90:	e30e38e4 	movw	r3, #59620	; 0xe8e4
    3e94:	e34f3fff 	movt	r3, #65535	; 0xffff
    3e98:	e1c230b0 	strh	r3, [r2]
    3e9c:	e3003af8 	movw	r3, #2808	; 0xaf8
    3ea0:	e34f3fff 	movt	r3, #65535	; 0xffff
    3ea4:	e30222c8 	movw	r2, #8904	; 0x22c8
    3ea8:	e24b1004 	sub	r1, r11, #4
    3eac:	e0813003 	add	r3, r1, r3
    3eb0:	e0832002 	add	r2, r3, r2
    3eb4:	e30e38e4 	movw	r3, #59620	; 0xe8e4
    3eb8:	e34f3fff 	movt	r3, #65535	; 0xffff
    3ebc:	e1c230b0 	strh	r3, [r2]
    3ec0:	e3003af8 	movw	r3, #2808	; 0xaf8
    3ec4:	e34f3fff 	movt	r3, #65535	; 0xffff
    3ec8:	e30222ca 	movw	r2, #8906	; 0x22ca
    3ecc:	e24b1004 	sub	r1, r11, #4
    3ed0:	e0813003 	add	r3, r1, r3
    3ed4:	e0832002 	add	r2, r3, r2
    3ed8:	e30e38e4 	movw	r3, #59620	; 0xe8e4
    3edc:	e34f3fff 	movt	r3, #65535	; 0xffff
    3ee0:	e1c230b0 	strh	r3, [r2]
    3ee4:	e3003af8 	movw	r3, #2808	; 0xaf8
    3ee8:	e34f3fff 	movt	r3, #65535	; 0xffff
    3eec:	e30222cc 	movw	r2, #8908	; 0x22cc
    3ef0:	e24b1004 	sub	r1, r11, #4
    3ef4:	e0813003 	add	r3, r1, r3
    3ef8:	e0832002 	add	r2, r3, r2
    3efc:	e30e38e4 	movw	r3, #59620	; 0xe8e4
    3f00:	e34f3fff 	movt	r3, #65535	; 0xffff
    3f04:	e1c230b0 	strh	r3, [r2]
    3f08:	e3003af8 	movw	r3, #2808	; 0xaf8
    3f0c:	e34f3fff 	movt	r3, #65535	; 0xffff
    3f10:	e30222ce 	movw	r2, #8910	; 0x22ce
    3f14:	e24b1004 	sub	r1, r11, #4
    3f18:	e0813003 	add	r3, r1, r3
    3f1c:	e0832002 	add	r2, r3, r2
    3f20:	e30e38e4 	movw	r3, #59620	; 0xe8e4
    3f24:	e34f3fff 	movt	r3, #65535	; 0xffff
    3f28:	e1c230b0 	strh	r3, [r2]
    3f2c:	e3003af8 	movw	r3, #2808	; 0xaf8
    3f30:	e34f3fff 	movt	r3, #65535	; 0xffff
    3f34:	e30222d0 	movw	r2, #8912	; 0x22d0
    3f38:	e24b1004 	sub	r1, r11, #4
    3f3c:	e0813003 	add	r3, r1, r3
    3f40:	e0832002 	add	r2, r3, r2
    3f44:	e30e38e4 	movw	r3, #59620	; 0xe8e4
    3f48:	e34f3fff 	movt	r3, #65535	; 0xffff
    3f4c:	e1c230b0 	strh	r3, [r2]
    3f50:	e3003af8 	movw	r3, #2808	; 0xaf8
    3f54:	e34f3fff 	movt	r3, #65535	; 0xffff
    3f58:	e30222d2 	movw	r2, #8914	; 0x22d2
    3f5c:	e24b1004 	sub	r1, r11, #4
    3f60:	e0813003 	add	r3, r1, r3
    3f64:	e0832002 	add	r2, r3, r2
    3f68:	e30e38e4 	movw	r3, #59620	; 0xe8e4
    3f6c:	e34f3fff 	movt	r3, #65535	; 0xffff
    3f70:	e1c230b0 	strh	r3, [r2]
    3f74:	e3003af8 	movw	r3, #2808	; 0xaf8
    3f78:	e34f3fff 	movt	r3, #65535	; 0xffff
    3f7c:	e30222d4 	movw	r2, #8916	; 0x22d4
    3f80:	e24b1004 	sub	r1, r11, #4
    3f84:	e0813003 	add	r3, r1, r3
    3f88:	e0832002 	add	r2, r3, r2
    3f8c:	e30e38e4 	movw	r3, #59620	; 0xe8e4
    3f90:	e34f3fff 	movt	r3, #65535	; 0xffff
    3f94:	e1c230b0 	strh	r3, [r2]
    3f98:	e3003af8 	movw	r3, #2808	; 0xaf8
    3f9c:	e34f3fff 	movt	r3, #65535	; 0xffff
    3fa0:	e30222d6 	movw	r2, #8918	; 0x22d6
    3fa4:	e24b1004 	sub	r1, r11, #4
    3fa8:	e0813003 	add	r3, r1, r3
    3fac:	e0832002 	add	r2, r3, r2
    3fb0:	e30e38e4 	movw	r3, #59620	; 0xe8e4
    3fb4:	e34f3fff 	movt	r3, #65535	; 0xffff
    3fb8:	e1c230b0 	strh	r3, [r2]
    3fbc:	e3003af8 	movw	r3, #2808	; 0xaf8
    3fc0:	e34f3fff 	movt	r3, #65535	; 0xffff
    3fc4:	e30222d8 	movw	r2, #8920	; 0x22d8
    3fc8:	e24b1004 	sub	r1, r11, #4
    3fcc:	e0813003 	add	r3, r1, r3
    3fd0:	e0832002 	add	r2, r3, r2
    3fd4:	e30e38e4 	movw	r3, #59620	; 0xe8e4
    3fd8:	e34f3fff 	movt	r3, #65535	; 0xffff
    3fdc:	e1c230b0 	strh	r3, [r2]
    3fe0:	e3003af8 	movw	r3, #2808	; 0xaf8
    3fe4:	e34f3fff 	movt	r3, #65535	; 0xffff
    3fe8:	e30222da 	movw	r2, #8922	; 0x22da
    3fec:	e24b1004 	sub	r1, r11, #4
    3ff0:	e0813003 	add	r3, r1, r3
    3ff4:	e0832002 	add	r2, r3, r2
    3ff8:	e30e38e4 	movw	r3, #59620	; 0xe8e4
    3ffc:	e34f3fff 	movt	r3, #65535	; 0xffff
    4000:	e1c230b0 	strh	r3, [r2]
    4004:	e3003af8 	movw	r3, #2808	; 0xaf8
    4008:	e34f3fff 	movt	r3, #65535	; 0xffff
    400c:	e30222dc 	movw	r2, #8924	; 0x22dc
    4010:	e24b1004 	sub	r1, r11, #4
    4014:	e0813003 	add	r3, r1, r3
    4018:	e0832002 	add	r2, r3, r2
    401c:	e30e38e4 	movw	r3, #59620	; 0xe8e4
    4020:	e34f3fff 	movt	r3, #65535	; 0xffff
    4024:	e1c230b0 	strh	r3, [r2]
    4028:	e3003af8 	movw	r3, #2808	; 0xaf8
    402c:	e34f3fff 	movt	r3, #65535	; 0xffff
    4030:	e30222f0 	movw	r2, #8944	; 0x22f0
    4034:	e24b1004 	sub	r1, r11, #4
    4038:	e0813003 	add	r3, r1, r3
    403c:	e0833002 	add	r3, r3, r2
    4040:	e3e0207f 	mvn	r2, #127	; 0x7f
    4044:	e1c320b0 	strh	r2, [r3]
    4048:	e3003af8 	movw	r3, #2808	; 0xaf8
    404c:	e34f3fff 	movt	r3, #65535	; 0xffff
    4050:	e3022358 	movw	r2, #9048	; 0x2358
    4054:	e24b1004 	sub	r1, r11, #4
    4058:	e0813003 	add	r3, r1, r3
    405c:	e0833002 	add	r3, r3, r2
    4060:	e3e0207f 	mvn	r2, #127	; 0x7f
    4064:	e1c320b0 	strh	r2, [r3]
    4068:	e3003af8 	movw	r3, #2808	; 0xaf8
    406c:	e34f3fff 	movt	r3, #65535	; 0xffff
    4070:	e302237e 	movw	r2, #9086	; 0x237e
    4074:	e24b1004 	sub	r1, r11, #4
    4078:	e0813003 	add	r3, r1, r3
    407c:	e0832002 	add	r2, r3, r2
    4080:	e30e38e4 	movw	r3, #59620	; 0xe8e4
    4084:	e34f3fff 	movt	r3, #65535	; 0xffff
    4088:	e1c230b0 	strh	r3, [r2]
    408c:	e3003af8 	movw	r3, #2808	; 0xaf8
    4090:	e34f3fff 	movt	r3, #65535	; 0xffff
    4094:	e3a02d8e 	mov	r2, #9088	; 0x2380
    4098:	e24b1004 	sub	r1, r11, #4
    409c:	e0813003 	add	r3, r1, r3
    40a0:	e0832002 	add	r2, r3, r2
    40a4:	e30e38e4 	movw	r3, #59620	; 0xe8e4
    40a8:	e34f3fff 	movt	r3, #65535	; 0xffff
    40ac:	e1c230b0 	strh	r3, [r2]
    40b0:	e3003af8 	movw	r3, #2808	; 0xaf8
    40b4:	e34f3fff 	movt	r3, #65535	; 0xffff
    40b8:	e3022382 	movw	r2, #9090	; 0x2382
    40bc:	e24b1004 	sub	r1, r11, #4
    40c0:	e0813003 	add	r3, r1, r3
    40c4:	e0832002 	add	r2, r3, r2
    40c8:	e30e38e4 	movw	r3, #59620	; 0xe8e4
    40cc:	e34f3fff 	movt	r3, #65535	; 0xffff
    40d0:	e1c230b0 	strh	r3, [r2]
    40d4:	e3003af8 	movw	r3, #2808	; 0xaf8
    40d8:	e34f3fff 	movt	r3, #65535	; 0xffff
    40dc:	e3022384 	movw	r2, #9092	; 0x2384
    40e0:	e24b1004 	sub	r1, r11, #4
    40e4:	e0813003 	add	r3, r1, r3
    40e8:	e0832002 	add	r2, r3, r2
    40ec:	e30e38e4 	movw	r3, #59620	; 0xe8e4
    40f0:	e34f3fff 	movt	r3, #65535	; 0xffff
    40f4:	e1c230b0 	strh	r3, [r2]
    40f8:	e3003af8 	movw	r3, #2808	; 0xaf8
    40fc:	e34f3fff 	movt	r3, #65535	; 0xffff
    4100:	e3022386 	movw	r2, #9094	; 0x2386
    4104:	e24b1004 	sub	r1, r11, #4
    4108:	e0813003 	add	r3, r1, r3
    410c:	e0832002 	add	r2, r3, r2
    4110:	e30e38e4 	movw	r3, #59620	; 0xe8e4
    4114:	e34f3fff 	movt	r3, #65535	; 0xffff
    4118:	e1c230b0 	strh	r3, [r2]
    411c:	e3003af8 	movw	r3, #2808	; 0xaf8
    4120:	e34f3fff 	movt	r3, #65535	; 0xffff
    4124:	e3022388 	movw	r2, #9096	; 0x2388
    4128:	e24b1004 	sub	r1, r11, #4
    412c:	e0813003 	add	r3, r1, r3
    4130:	e0832002 	add	r2, r3, r2
    4134:	e30e38e4 	movw	r3, #59620	; 0xe8e4
    4138:	e34f3fff 	movt	r3, #65535	; 0xffff
    413c:	e1c230b0 	strh	r3, [r2]
    4140:	e3003af8 	movw	r3, #2808	; 0xaf8
    4144:	e34f3fff 	movt	r3, #65535	; 0xffff
    4148:	e302238a 	movw	r2, #9098	; 0x238a
    414c:	e24b1004 	sub	r1, r11, #4
    4150:	e0813003 	add	r3, r1, r3
    4154:	e0832002 	add	r2, r3, r2
    4158:	e30e38e4 	movw	r3, #59620	; 0xe8e4
    415c:	e34f3fff 	movt	r3, #65535	; 0xffff
    4160:	e1c230b0 	strh	r3, [r2]
    4164:	e3003af8 	movw	r3, #2808	; 0xaf8
    4168:	e34f3fff 	movt	r3, #65535	; 0xffff
    416c:	e302238c 	movw	r2, #9100	; 0x238c
    4170:	e24b1004 	sub	r1, r11, #4
    4174:	e0813003 	add	r3, r1, r3
    4178:	e0832002 	add	r2, r3, r2
    417c:	e30e38e4 	movw	r3, #59620	; 0xe8e4
    4180:	e34f3fff 	movt	r3, #65535	; 0xffff
    4184:	e1c230b0 	strh	r3, [r2]
    4188:	e3003af8 	movw	r3, #2808	; 0xaf8
    418c:	e34f3fff 	movt	r3, #65535	; 0xffff
    4190:	e302238e 	movw	r2, #9102	; 0x238e
    4194:	e24b1004 	sub	r1, r11, #4
    4198:	e0813003 	add	r3, r1, r3
    419c:	e0832002 	add	r2, r3, r2
    41a0:	e30e38e4 	movw	r3, #59620	; 0xe8e4
    41a4:	e34f3fff 	movt	r3, #65535	; 0xffff
    41a8:	e1c230b0 	strh	r3, [r2]
    41ac:	e3003af8 	movw	r3, #2808	; 0xaf8
    41b0:	e34f3fff 	movt	r3, #65535	; 0xffff
    41b4:	e3022390 	movw	r2, #9104	; 0x2390
    41b8:	e24b1004 	sub	r1, r11, #4
    41bc:	e0813003 	add	r3, r1, r3
    41c0:	e0832002 	add	r2, r3, r2
    41c4:	e30e38e4 	movw	r3, #59620	; 0xe8e4
    41c8:	e34f3fff 	movt	r3, #65535	; 0xffff
    41cc:	e1c230b0 	strh	r3, [r2]
    41d0:	e3003af8 	movw	r3, #2808	; 0xaf8
    41d4:	e34f3fff 	movt	r3, #65535	; 0xffff
    41d8:	e3022392 	movw	r2, #9106	; 0x2392
    41dc:	e24b1004 	sub	r1, r11, #4
    41e0:	e0813003 	add	r3, r1, r3
    41e4:	e0832002 	add	r2, r3, r2
    41e8:	e30e38e4 	movw	r3, #59620	; 0xe8e4
    41ec:	e34f3fff 	movt	r3, #65535	; 0xffff
    41f0:	e1c230b0 	strh	r3, [r2]
    41f4:	e3003af8 	movw	r3, #2808	; 0xaf8
    41f8:	e34f3fff 	movt	r3, #65535	; 0xffff
    41fc:	e3022394 	movw	r2, #9108	; 0x2394
    4200:	e24b1004 	sub	r1, r11, #4
    4204:	e0813003 	add	r3, r1, r3
    4208:	e0832002 	add	r2, r3, r2
    420c:	e30e38e4 	movw	r3, #59620	; 0xe8e4
    4210:	e34f3fff 	movt	r3, #65535	; 0xffff
    4214:	e1c230b0 	strh	r3, [r2]
    4218:	e3003af8 	movw	r3, #2808	; 0xaf8
    421c:	e34f3fff 	movt	r3, #65535	; 0xffff
    4220:	e3022396 	movw	r2, #9110	; 0x2396
    4224:	e24b1004 	sub	r1, r11, #4
    4228:	e0813003 	add	r3, r1, r3
    422c:	e0832002 	add	r2, r3, r2
    4230:	e30e38e4 	movw	r3, #59620	; 0xe8e4
    4234:	e34f3fff 	movt	r3, #65535	; 0xffff
    4238:	e1c230b0 	strh	r3, [r2]
    423c:	e3003af8 	movw	r3, #2808	; 0xaf8
    4240:	e34f3fff 	movt	r3, #65535	; 0xffff
    4244:	e3022398 	movw	r2, #9112	; 0x2398
    4248:	e24b1004 	sub	r1, r11, #4
    424c:	e0813003 	add	r3, r1, r3
    4250:	e0832002 	add	r2, r3, r2
    4254:	e30e38e4 	movw	r3, #59620	; 0xe8e4
    4258:	e34f3fff 	movt	r3, #65535	; 0xffff
    425c:	e1c230b0 	strh	r3, [r2]
    4260:	e3003af8 	movw	r3, #2808	; 0xaf8
    4264:	e34f3fff 	movt	r3, #65535	; 0xffff
    4268:	e302239a 	movw	r2, #9114	; 0x239a
    426c:	e24b1004 	sub	r1, r11, #4
    4270:	e0813003 	add	r3, r1, r3
    4274:	e0832002 	add	r2, r3, r2
    4278:	e30e38e4 	movw	r3, #59620	; 0xe8e4
    427c:	e34f3fff 	movt	r3, #65535	; 0xffff
    4280:	e1c230b0 	strh	r3, [r2]
    4284:	e3003af8 	movw	r3, #2808	; 0xaf8
    4288:	e34f3fff 	movt	r3, #65535	; 0xffff
    428c:	e302239c 	movw	r2, #9116	; 0x239c
    4290:	e24b1004 	sub	r1, r11, #4
    4294:	e0813003 	add	r3, r1, r3
    4298:	e0832002 	add	r2, r3, r2
    429c:	e30e38e4 	movw	r3, #59620	; 0xe8e4
    42a0:	e34f3fff 	movt	r3, #65535	; 0xffff
    42a4:	e1c230b0 	strh	r3, [r2]
    42a8:	e3003af8 	movw	r3, #2808	; 0xaf8
    42ac:	e34f3fff 	movt	r3, #65535	; 0xffff
    42b0:	e30223b4 	movw	r2, #9140	; 0x23b4
    42b4:	e24b1004 	sub	r1, r11, #4
    42b8:	e0813003 	add	r3, r1, r3
    42bc:	e0833002 	add	r3, r3, r2
    42c0:	e3e0207f 	mvn	r2, #127	; 0x7f
    42c4:	e1c320b0 	strh	r2, [r3]
    42c8:	e3003af8 	movw	r3, #2808	; 0xaf8
    42cc:	e34f3fff 	movt	r3, #65535	; 0xffff
    42d0:	e302241c 	movw	r2, #9244	; 0x241c
    42d4:	e24b1004 	sub	r1, r11, #4
    42d8:	e0813003 	add	r3, r1, r3
    42dc:	e0833002 	add	r3, r3, r2
    42e0:	e3e0207f 	mvn	r2, #127	; 0x7f
    42e4:	e1c320b0 	strh	r2, [r3]
    42e8:	e3003af8 	movw	r3, #2808	; 0xaf8
    42ec:	e34f3fff 	movt	r3, #65535	; 0xffff
    42f0:	e302243e 	movw	r2, #9278	; 0x243e
    42f4:	e24b1004 	sub	r1, r11, #4
    42f8:	e0813003 	add	r3, r1, r3
    42fc:	e0832002 	add	r2, r3, r2
    4300:	e30e38e4 	movw	r3, #59620	; 0xe8e4
    4304:	e34f3fff 	movt	r3, #65535	; 0xffff
    4308:	e1c230b0 	strh	r3, [r2]
    430c:	e3003af8 	movw	r3, #2808	; 0xaf8
    4310:	e34f3fff 	movt	r3, #65535	; 0xffff
    4314:	e3a02d91 	mov	r2, #9280	; 0x2440
    4318:	e24b1004 	sub	r1, r11, #4
    431c:	e0813003 	add	r3, r1, r3
    4320:	e0832002 	add	r2, r3, r2
    4324:	e30e38e4 	movw	r3, #59620	; 0xe8e4
    4328:	e34f3fff 	movt	r3, #65535	; 0xffff
    432c:	e1c230b0 	strh	r3, [r2]
    4330:	e3003af8 	movw	r3, #2808	; 0xaf8
    4334:	e34f3fff 	movt	r3, #65535	; 0xffff
    4338:	e3022442 	movw	r2, #9282	; 0x2442
    433c:	e24b1004 	sub	r1, r11, #4
    4340:	e0813003 	add	r3, r1, r3
    4344:	e0832002 	add	r2, r3, r2
    4348:	e30e38e4 	movw	r3, #59620	; 0xe8e4
    434c:	e34f3fff 	movt	r3, #65535	; 0xffff
    4350:	e1c230b0 	strh	r3, [r2]
    4354:	e3003af8 	movw	r3, #2808	; 0xaf8
    4358:	e34f3fff 	movt	r3, #65535	; 0xffff
    435c:	e3022444 	movw	r2, #9284	; 0x2444
    4360:	e24b1004 	sub	r1, r11, #4
    4364:	e0813003 	add	r3, r1, r3
    4368:	e0832002 	add	r2, r3, r2
    436c:	e30e38e4 	movw	r3, #59620	; 0xe8e4
    4370:	e34f3fff 	movt	r3, #65535	; 0xffff
    4374:	e1c230b0 	strh	r3, [r2]
    4378:	e3003af8 	movw	r3, #2808	; 0xaf8
    437c:	e34f3fff 	movt	r3, #65535	; 0xffff
    4380:	e3022446 	movw	r2, #9286	; 0x2446
    4384:	e24b1004 	sub	r1, r11, #4
    4388:	e0813003 	add	r3, r1, r3
    438c:	e0832002 	add	r2, r3, r2
    4390:	e30e38e4 	movw	r3, #59620	; 0xe8e4
    4394:	e34f3fff 	movt	r3, #65535	; 0xffff
    4398:	e1c230b0 	strh	r3, [r2]
    439c:	e3003af8 	movw	r3, #2808	; 0xaf8
    43a0:	e34f3fff 	movt	r3, #65535	; 0xffff
    43a4:	e3022448 	movw	r2, #9288	; 0x2448
    43a8:	e24b1004 	sub	r1, r11, #4
    43ac:	e0813003 	add	r3, r1, r3
    43b0:	e0832002 	add	r2, r3, r2
    43b4:	e30e38e4 	movw	r3, #59620	; 0xe8e4
    43b8:	e34f3fff 	movt	r3, #65535	; 0xffff
    43bc:	e1c230b0 	strh	r3, [r2]
    43c0:	e3003af8 	movw	r3, #2808	; 0xaf8
    43c4:	e34f3fff 	movt	r3, #65535	; 0xffff
    43c8:	e302244a 	movw	r2, #9290	; 0x244a
    43cc:	e24b1004 	sub	r1, r11, #4
    43d0:	e0813003 	add	r3, r1, r3
    43d4:	e0832002 	add	r2, r3, r2
    43d8:	e30e38e4 	movw	r3, #59620	; 0xe8e4
    43dc:	e34f3fff 	movt	r3, #65535	; 0xffff
    43e0:	e1c230b0 	strh	r3, [r2]
    43e4:	e3003af8 	movw	r3, #2808	; 0xaf8
    43e8:	e34f3fff 	movt	r3, #65535	; 0xffff
    43ec:	e302244c 	movw	r2, #9292	; 0x244c
    43f0:	e24b1004 	sub	r1, r11, #4
    43f4:	e0813003 	add	r3, r1, r3
    43f8:	e0832002 	add	r2, r3, r2
    43fc:	e30e38e4 	movw	r3, #59620	; 0xe8e4
    4400:	e34f3fff 	movt	r3, #65535	; 0xffff
    4404:	e1c230b0 	strh	r3, [r2]
    4408:	e3003af8 	movw	r3, #2808	; 0xaf8
    440c:	e34f3fff 	movt	r3, #65535	; 0xffff
    4410:	e302244e 	movw	r2, #9294	; 0x244e
    4414:	e24b1004 	sub	r1, r11, #4
    4418:	e0813003 	add	r3, r1, r3
    441c:	e0832002 	add	r2, r3, r2
    4420:	e30e38e4 	movw	r3, #59620	; 0xe8e4
    4424:	e34f3fff 	movt	r3, #65535	; 0xffff
    4428:	e1c230b0 	strh	r3, [r2]
    442c:	e3003af8 	movw	r3, #2808	; 0xaf8
    4430:	e34f3fff 	movt	r3, #65535	; 0xffff
    4434:	e3022450 	movw	r2, #9296	; 0x2450
    4438:	e24b1004 	sub	r1, r11, #4
    443c:	e0813003 	add	r3, r1, r3
    4440:	e0832002 	add	r2, r3, r2
    4444:	e30e38e4 	movw	r3, #59620	; 0xe8e4
    4448:	e34f3fff 	movt	r3, #65535	; 0xffff
    444c:	e1c230b0 	strh	r3, [r2]
    4450:	e3003af8 	movw	r3, #2808	; 0xaf8
    4454:	e34f3fff 	movt	r3, #65535	; 0xffff
    4458:	e3022452 	movw	r2, #9298	; 0x2452
    445c:	e24b1004 	sub	r1, r11, #4
    4460:	e0813003 	add	r3, r1, r3
    4464:	e0832002 	add	r2, r3, r2
    4468:	e30e38e4 	movw	r3, #59620	; 0xe8e4
    446c:	e34f3fff 	movt	r3, #65535	; 0xffff
    4470:	e1c230b0 	strh	r3, [r2]
    4474:	e3003af8 	movw	r3, #2808	; 0xaf8
    4478:	e34f3fff 	movt	r3, #65535	; 0xffff
    447c:	e3022454 	movw	r2, #9300	; 0x2454
    4480:	e24b1004 	sub	r1, r11, #4
    4484:	e0813003 	add	r3, r1, r3
    4488:	e0832002 	add	r2, r3, r2
    448c:	e30e38e4 	movw	r3, #59620	; 0xe8e4
    4490:	e34f3fff 	movt	r3, #65535	; 0xffff
    4494:	e1c230b0 	strh	r3, [r2]
    4498:	e3003af8 	movw	r3, #2808	; 0xaf8
    449c:	e34f3fff 	movt	r3, #65535	; 0xffff
    44a0:	e3022478 	movw	r2, #9336	; 0x2478
    44a4:	e24b1004 	sub	r1, r11, #4
    44a8:	e0813003 	add	r3, r1, r3
    44ac:	e0833002 	add	r3, r3, r2
    44b0:	e3e0207f 	mvn	r2, #127	; 0x7f
    44b4:	e1c320b0 	strh	r2, [r3]
    44b8:	e3003af8 	movw	r3, #2808	; 0xaf8
    44bc:	e34f3fff 	movt	r3, #65535	; 0xffff
    44c0:	e30224da 	movw	r2, #9434	; 0x24da
    44c4:	e24b1004 	sub	r1, r11, #4
    44c8:	e0813003 	add	r3, r1, r3
    44cc:	e0833002 	add	r3, r3, r2
    44d0:	e3e0207f 	mvn	r2, #127	; 0x7f
    44d4:	e1c320b0 	strh	r2, [r3]
    44d8:	e3003af8 	movw	r3, #2808	; 0xaf8
    44dc:	e34f3fff 	movt	r3, #65535	; 0xffff
    44e0:	e30224dc 	movw	r2, #9436	; 0x24dc
    44e4:	e24b1004 	sub	r1, r11, #4
    44e8:	e0813003 	add	r3, r1, r3
    44ec:	e0833002 	add	r3, r3, r2
    44f0:	e3e0207f 	mvn	r2, #127	; 0x7f
    44f4:	e1c320b0 	strh	r2, [r3]
    44f8:	e3003af8 	movw	r3, #2808	; 0xaf8
    44fc:	e34f3fff 	movt	r3, #65535	; 0xffff
    4500:	e30224de 	movw	r2, #9438	; 0x24de
    4504:	e24b1004 	sub	r1, r11, #4
    4508:	e0813003 	add	r3, r1, r3
    450c:	e0833002 	add	r3, r3, r2
    4510:	e3e0207f 	mvn	r2, #127	; 0x7f
    4514:	e1c320b0 	strh	r2, [r3]
    4518:	e3003af8 	movw	r3, #2808	; 0xaf8
    451c:	e34f3fff 	movt	r3, #65535	; 0xffff
    4520:	e3022502 	movw	r2, #9474	; 0x2502
    4524:	e24b1004 	sub	r1, r11, #4
    4528:	e0813003 	add	r3, r1, r3
    452c:	e0832002 	add	r2, r3, r2
    4530:	e30e38e4 	movw	r3, #59620	; 0xe8e4
    4534:	e34f3fff 	movt	r3, #65535	; 0xffff
    4538:	e1c230b0 	strh	r3, [r2]
    453c:	e3003af8 	movw	r3, #2808	; 0xaf8
    4540:	e34f3fff 	movt	r3, #65535	; 0xffff
    4544:	e3022504 	movw	r2, #9476	; 0x2504
    4548:	e24b1004 	sub	r1, r11, #4
    454c:	e0813003 	add	r3, r1, r3
    4550:	e0832002 	add	r2, r3, r2
    4554:	e30e38e4 	movw	r3, #59620	; 0xe8e4
    4558:	e34f3fff 	movt	r3, #65535	; 0xffff
    455c:	e1c230b0 	strh	r3, [r2]
    4560:	e3003af8 	movw	r3, #2808	; 0xaf8
    4564:	e34f3fff 	movt	r3, #65535	; 0xffff
    4568:	e3022506 	movw	r2, #9478	; 0x2506
    456c:	e24b1004 	sub	r1, r11, #4
    4570:	e0813003 	add	r3, r1, r3
    4574:	e0832002 	add	r2, r3, r2
    4578:	e30e38e4 	movw	r3, #59620	; 0xe8e4
    457c:	e34f3fff 	movt	r3, #65535	; 0xffff
    4580:	e1c230b0 	strh	r3, [r2]
    4584:	e3003af8 	movw	r3, #2808	; 0xaf8
    4588:	e34f3fff 	movt	r3, #65535	; 0xffff
    458c:	e3022508 	movw	r2, #9480	; 0x2508
    4590:	e24b1004 	sub	r1, r11, #4
    4594:	e0813003 	add	r3, r1, r3
    4598:	e0832002 	add	r2, r3, r2
    459c:	e30e38e4 	movw	r3, #59620	; 0xe8e4
    45a0:	e34f3fff 	movt	r3, #65535	; 0xffff
    45a4:	e1c230b0 	strh	r3, [r2]
    45a8:	e3003af8 	movw	r3, #2808	; 0xaf8
    45ac:	e34f3fff 	movt	r3, #65535	; 0xffff
    45b0:	e302250a 	movw	r2, #9482	; 0x250a
    45b4:	e24b1004 	sub	r1, r11, #4
    45b8:	e0813003 	add	r3, r1, r3
    45bc:	e0832002 	add	r2, r3, r2
    45c0:	e30e38e4 	movw	r3, #59620	; 0xe8e4
    45c4:	e34f3fff 	movt	r3, #65535	; 0xffff
    45c8:	e1c230b0 	strh	r3, [r2]
    45cc:	e3003af8 	movw	r3, #2808	; 0xaf8
    45d0:	e34f3fff 	movt	r3, #65535	; 0xffff
    45d4:	e302250c 	movw	r2, #9484	; 0x250c
    45d8:	e24b1004 	sub	r1, r11, #4
    45dc:	e0813003 	add	r3, r1, r3
    45e0:	e0832002 	add	r2, r3, r2
    45e4:	e30e38e4 	movw	r3, #59620	; 0xe8e4
    45e8:	e34f3fff 	movt	r3, #65535	; 0xffff
    45ec:	e1c230b0 	strh	r3, [r2]
    45f0:	e3003af8 	movw	r3, #2808	; 0xaf8
    45f4:	e34f3fff 	movt	r3, #65535	; 0xffff
    45f8:	e302250e 	movw	r2, #9486	; 0x250e
    45fc:	e24b1004 	sub	r1, r11, #4
    4600:	e0813003 	add	r3, r1, r3
    4604:	e0832002 	add	r2, r3, r2
    4608:	e30e38e4 	movw	r3, #59620	; 0xe8e4
    460c:	e34f3fff 	movt	r3, #65535	; 0xffff
    4610:	e1c230b0 	strh	r3, [r2]
    4614:	e3003af8 	movw	r3, #2808	; 0xaf8
    4618:	e34f3fff 	movt	r3, #65535	; 0xffff
    461c:	e3022510 	movw	r2, #9488	; 0x2510
    4620:	e24b1004 	sub	r1, r11, #4
    4624:	e0813003 	add	r3, r1, r3
    4628:	e0832002 	add	r2, r3, r2
    462c:	e30e38e4 	movw	r3, #59620	; 0xe8e4
    4630:	e34f3fff 	movt	r3, #65535	; 0xffff
    4634:	e1c230b0 	strh	r3, [r2]
    4638:	e3003af8 	movw	r3, #2808	; 0xaf8
    463c:	e34f3fff 	movt	r3, #65535	; 0xffff
    4640:	e3022512 	movw	r2, #9490	; 0x2512
    4644:	e24b1004 	sub	r1, r11, #4
    4648:	e0813003 	add	r3, r1, r3
    464c:	e0832002 	add	r2, r3, r2
    4650:	e30e38e4 	movw	r3, #59620	; 0xe8e4
    4654:	e34f3fff 	movt	r3, #65535	; 0xffff
    4658:	e1c230b0 	strh	r3, [r2]
    465c:	e3003af8 	movw	r3, #2808	; 0xaf8
    4660:	e34f3fff 	movt	r3, #65535	; 0xffff
    4664:	e3022514 	movw	r2, #9492	; 0x2514
    4668:	e24b1004 	sub	r1, r11, #4
    466c:	e0813003 	add	r3, r1, r3
    4670:	e0832002 	add	r2, r3, r2
    4674:	e30e38e4 	movw	r3, #59620	; 0xe8e4
    4678:	e34f3fff 	movt	r3, #65535	; 0xffff
    467c:	e1c230b0 	strh	r3, [r2]
    4680:	e3003af8 	movw	r3, #2808	; 0xaf8
    4684:	e34f3fff 	movt	r3, #65535	; 0xffff
    4688:	e302253c 	movw	r2, #9532	; 0x253c
    468c:	e24b1004 	sub	r1, r11, #4
    4690:	e0813003 	add	r3, r1, r3
    4694:	e0833002 	add	r3, r3, r2
    4698:	e3e0207f 	mvn	r2, #127	; 0x7f
    469c:	e1c320b0 	strh	r2, [r3]
    46a0:	e3003af8 	movw	r3, #2808	; 0xaf8
    46a4:	e34f3fff 	movt	r3, #65535	; 0xffff
    46a8:	e302259e 	movw	r2, #9630	; 0x259e
    46ac:	e24b1004 	sub	r1, r11, #4
    46b0:	e0813003 	add	r3, r1, r3
    46b4:	e0833002 	add	r3, r3, r2
    46b8:	e3e0207f 	mvn	r2, #127	; 0x7f
    46bc:	e1c320b0 	strh	r2, [r3]
    46c0:	e3003af8 	movw	r3, #2808	; 0xaf8
    46c4:	e34f3fff 	movt	r3, #65535	; 0xffff
    46c8:	e30225be 	movw	r2, #9662	; 0x25be
    46cc:	e24b1004 	sub	r1, r11, #4
    46d0:	e0813003 	add	r3, r1, r3
    46d4:	e0832002 	add	r2, r3, r2
    46d8:	e30e38e4 	movw	r3, #59620	; 0xe8e4
    46dc:	e34f3fff 	movt	r3, #65535	; 0xffff
    46e0:	e1c230b0 	strh	r3, [r2]
    46e4:	e3003af8 	movw	r3, #2808	; 0xaf8
    46e8:	e34f3fff 	movt	r3, #65535	; 0xffff
    46ec:	e3a02d97 	mov	r2, #9664	; 0x25c0
    46f0:	e24b1004 	sub	r1, r11, #4
    46f4:	e0813003 	add	r3, r1, r3
    46f8:	e0832002 	add	r2, r3, r2
    46fc:	e30e38e4 	movw	r3, #59620	; 0xe8e4
    4700:	e34f3fff 	movt	r3, #65535	; 0xffff
    4704:	e1c230b0 	strh	r3, [r2]
    4708:	e3003af8 	movw	r3, #2808	; 0xaf8
    470c:	e34f3fff 	movt	r3, #65535	; 0xffff
    4710:	e30225c2 	movw	r2, #9666	; 0x25c2
    4714:	e24b1004 	sub	r1, r11, #4
    4718:	e0813003 	add	r3, r1, r3
    471c:	e0832002 	add	r2, r3, r2
    4720:	e30e38e4 	movw	r3, #59620	; 0xe8e4
    4724:	e34f3fff 	movt	r3, #65535	; 0xffff
    4728:	e1c230b0 	strh	r3, [r2]
    472c:	e3003af8 	movw	r3, #2808	; 0xaf8
    4730:	e34f3fff 	movt	r3, #65535	; 0xffff
    4734:	e30225c4 	movw	r2, #9668	; 0x25c4
    4738:	e24b1004 	sub	r1, r11, #4
    473c:	e0813003 	add	r3, r1, r3
    4740:	e0832002 	add	r2, r3, r2
    4744:	e30e38e4 	movw	r3, #59620	; 0xe8e4
    4748:	e34f3fff 	movt	r3, #65535	; 0xffff
    474c:	e1c230b0 	strh	r3, [r2]
    4750:	e3003af8 	movw	r3, #2808	; 0xaf8
    4754:	e34f3fff 	movt	r3, #65535	; 0xffff
    4758:	e30225c6 	movw	r2, #9670	; 0x25c6
    475c:	e24b1004 	sub	r1, r11, #4
    4760:	e0813003 	add	r3, r1, r3
    4764:	e0832002 	add	r2, r3, r2
    4768:	e30e38e4 	movw	r3, #59620	; 0xe8e4
    476c:	e34f3fff 	movt	r3, #65535	; 0xffff
    4770:	e1c230b0 	strh	r3, [r2]
    4774:	e3003af8 	movw	r3, #2808	; 0xaf8
    4778:	e34f3fff 	movt	r3, #65535	; 0xffff
    477c:	e30225c8 	movw	r2, #9672	; 0x25c8
    4780:	e24b1004 	sub	r1, r11, #4
    4784:	e0813003 	add	r3, r1, r3
    4788:	e0832002 	add	r2, r3, r2
    478c:	e30e38e4 	movw	r3, #59620	; 0xe8e4
    4790:	e34f3fff 	movt	r3, #65535	; 0xffff
    4794:	e1c230b0 	strh	r3, [r2]
    4798:	e3003af8 	movw	r3, #2808	; 0xaf8
    479c:	e34f3fff 	movt	r3, #65535	; 0xffff
    47a0:	e30225ca 	movw	r2, #9674	; 0x25ca
    47a4:	e24b1004 	sub	r1, r11, #4
    47a8:	e0813003 	add	r3, r1, r3
    47ac:	e0832002 	add	r2, r3, r2
    47b0:	e30e38e4 	movw	r3, #59620	; 0xe8e4
    47b4:	e34f3fff 	movt	r3, #65535	; 0xffff
    47b8:	e1c230b0 	strh	r3, [r2]
    47bc:	e3003af8 	movw	r3, #2808	; 0xaf8
    47c0:	e34f3fff 	movt	r3, #65535	; 0xffff
    47c4:	e30225cc 	movw	r2, #9676	; 0x25cc
    47c8:	e24b1004 	sub	r1, r11, #4
    47cc:	e0813003 	add	r3, r1, r3
    47d0:	e0832002 	add	r2, r3, r2
    47d4:	e30e38e4 	movw	r3, #59620	; 0xe8e4
    47d8:	e34f3fff 	movt	r3, #65535	; 0xffff
    47dc:	e1c230b0 	strh	r3, [r2]
    47e0:	e3003af8 	movw	r3, #2808	; 0xaf8
    47e4:	e34f3fff 	movt	r3, #65535	; 0xffff
    47e8:	e30225ce 	movw	r2, #9678	; 0x25ce
    47ec:	e24b1004 	sub	r1, r11, #4
    47f0:	e0813003 	add	r3, r1, r3
    47f4:	e0832002 	add	r2, r3, r2
    47f8:	e30e38e4 	movw	r3, #59620	; 0xe8e4
    47fc:	e34f3fff 	movt	r3, #65535	; 0xffff
    4800:	e1c230b0 	strh	r3, [r2]
    4804:	e3003af8 	movw	r3, #2808	; 0xaf8
    4808:	e34f3fff 	movt	r3, #65535	; 0xffff
    480c:	e3a02c26 	mov	r2, #9728	; 0x2600
    4810:	e24b1004 	sub	r1, r11, #4
    4814:	e0813003 	add	r3, r1, r3
    4818:	e0833002 	add	r3, r3, r2
    481c:	e3e0207f 	mvn	r2, #127	; 0x7f
    4820:	e1c320b0 	strh	r2, [r3]
    4824:	e3003af8 	movw	r3, #2808	; 0xaf8
    4828:	e34f3fff 	movt	r3, #65535	; 0xffff
    482c:	e3022616 	movw	r2, #9750	; 0x2616
    4830:	e24b1004 	sub	r1, r11, #4
    4834:	e0813003 	add	r3, r1, r3
    4838:	e0832002 	add	r2, r3, r2
    483c:	e30b3724 	movw	r3, #46884	; 0xb724
    4840:	e34f3fff 	movt	r3, #65535	; 0xffff
    4844:	e1c230b0 	strh	r3, [r2]
    4848:	e3003af8 	movw	r3, #2808	; 0xaf8
    484c:	e34f3fff 	movt	r3, #65535	; 0xffff
    4850:	e3022618 	movw	r2, #9752	; 0x2618
    4854:	e24b1004 	sub	r1, r11, #4
    4858:	e0813003 	add	r3, r1, r3
    485c:	e0832002 	add	r2, r3, r2
    4860:	e30b3724 	movw	r3, #46884	; 0xb724
    4864:	e34f3fff 	movt	r3, #65535	; 0xffff
    4868:	e1c230b0 	strh	r3, [r2]
    486c:	e3003af8 	movw	r3, #2808	; 0xaf8
    4870:	e34f3fff 	movt	r3, #65535	; 0xffff
    4874:	e3022662 	movw	r2, #9826	; 0x2662
    4878:	e24b1004 	sub	r1, r11, #4
    487c:	e0813003 	add	r3, r1, r3
    4880:	e0833002 	add	r3, r3, r2
    4884:	e3e0207f 	mvn	r2, #127	; 0x7f
    4888:	e1c320b0 	strh	r2, [r3]
    488c:	e3003af8 	movw	r3, #2808	; 0xaf8
    4890:	e34f3fff 	movt	r3, #65535	; 0xffff
    4894:	e3022664 	movw	r2, #9828	; 0x2664
    4898:	e24b1004 	sub	r1, r11, #4
    489c:	e0813003 	add	r3, r1, r3
    48a0:	e0833002 	add	r3, r3, r2
    48a4:	e3e0207f 	mvn	r2, #127	; 0x7f
    48a8:	e1c320b0 	strh	r2, [r3]
    48ac:	e3003af8 	movw	r3, #2808	; 0xaf8
    48b0:	e34f3fff 	movt	r3, #65535	; 0xffff
    48b4:	e3022668 	movw	r2, #9832	; 0x2668
    48b8:	e24b1004 	sub	r1, r11, #4
    48bc:	e0813003 	add	r3, r1, r3
    48c0:	e0833002 	add	r3, r3, r2
    48c4:	e3e0207f 	mvn	r2, #127	; 0x7f
    48c8:	e1c320b0 	strh	r2, [r3]
    48cc:	e3003af8 	movw	r3, #2808	; 0xaf8
    48d0:	e34f3fff 	movt	r3, #65535	; 0xffff
    48d4:	e302266a 	movw	r2, #9834	; 0x266a
    48d8:	e24b1004 	sub	r1, r11, #4
    48dc:	e0813003 	add	r3, r1, r3
    48e0:	e0833002 	add	r3, r3, r2
    48e4:	e3e0207f 	mvn	r2, #127	; 0x7f
    48e8:	e1c320b0 	strh	r2, [r3]
    48ec:	e3003af8 	movw	r3, #2808	; 0xaf8
    48f0:	e34f3fff 	movt	r3, #65535	; 0xffff
    48f4:	e3022682 	movw	r2, #9858	; 0x2682
    48f8:	e24b1004 	sub	r1, r11, #4
    48fc:	e0813003 	add	r3, r1, r3
    4900:	e0832002 	add	r2, r3, r2
    4904:	e30e38e4 	movw	r3, #59620	; 0xe8e4
    4908:	e34f3fff 	movt	r3, #65535	; 0xffff
    490c:	e1c230b0 	strh	r3, [r2]
    4910:	e3003af8 	movw	r3, #2808	; 0xaf8
    4914:	e34f3fff 	movt	r3, #65535	; 0xffff
    4918:	e3022684 	movw	r2, #9860	; 0x2684
    491c:	e24b1004 	sub	r1, r11, #4
    4920:	e0813003 	add	r3, r1, r3
    4924:	e0832002 	add	r2, r3, r2
    4928:	e30e38e4 	movw	r3, #59620	; 0xe8e4
    492c:	e34f3fff 	movt	r3, #65535	; 0xffff
    4930:	e1c230b0 	strh	r3, [r2]
    4934:	e3003af8 	movw	r3, #2808	; 0xaf8
    4938:	e34f3fff 	movt	r3, #65535	; 0xffff
    493c:	e3022686 	movw	r2, #9862	; 0x2686
    4940:	e24b1004 	sub	r1, r11, #4
    4944:	e0813003 	add	r3, r1, r3
    4948:	e0832002 	add	r2, r3, r2
    494c:	e30e38e4 	movw	r3, #59620	; 0xe8e4
    4950:	e34f3fff 	movt	r3, #65535	; 0xffff
    4954:	e1c230b0 	strh	r3, [r2]
    4958:	e3003af8 	movw	r3, #2808	; 0xaf8
    495c:	e34f3fff 	movt	r3, #65535	; 0xffff
    4960:	e3022688 	movw	r2, #9864	; 0x2688
    4964:	e24b1004 	sub	r1, r11, #4
    4968:	e0813003 	add	r3, r1, r3
    496c:	e0832002 	add	r2, r3, r2
    4970:	e30e38e4 	movw	r3, #59620	; 0xe8e4
    4974:	e34f3fff 	movt	r3, #65535	; 0xffff
    4978:	e1c230b0 	strh	r3, [r2]
    497c:	e3003af8 	movw	r3, #2808	; 0xaf8
    4980:	e34f3fff 	movt	r3, #65535	; 0xffff
    4984:	e302268a 	movw	r2, #9866	; 0x268a
    4988:	e24b1004 	sub	r1, r11, #4
    498c:	e0813003 	add	r3, r1, r3
    4990:	e0832002 	add	r2, r3, r2
    4994:	e30e38e4 	movw	r3, #59620	; 0xe8e4
    4998:	e34f3fff 	movt	r3, #65535	; 0xffff
    499c:	e1c230b0 	strh	r3, [r2]
    49a0:	e3003af8 	movw	r3, #2808	; 0xaf8
    49a4:	e34f3fff 	movt	r3, #65535	; 0xffff
    49a8:	e302268c 	movw	r2, #9868	; 0x268c
    49ac:	e24b1004 	sub	r1, r11, #4
    49b0:	e0813003 	add	r3, r1, r3
    49b4:	e0832002 	add	r2, r3, r2
    49b8:	e30e38e4 	movw	r3, #59620	; 0xe8e4
    49bc:	e34f3fff 	movt	r3, #65535	; 0xffff
    49c0:	e1c230b0 	strh	r3, [r2]
    49c4:	e3003af8 	movw	r3, #2808	; 0xaf8
    49c8:	e34f3fff 	movt	r3, #65535	; 0xffff
    49cc:	e302268e 	movw	r2, #9870	; 0x268e
    49d0:	e24b1004 	sub	r1, r11, #4
    49d4:	e0813003 	add	r3, r1, r3
    49d8:	e0832002 	add	r2, r3, r2
    49dc:	e30e38e4 	movw	r3, #59620	; 0xe8e4
    49e0:	e34f3fff 	movt	r3, #65535	; 0xffff
    49e4:	e1c230b0 	strh	r3, [r2]
    49e8:	e3003af8 	movw	r3, #2808	; 0xaf8
    49ec:	e34f3fff 	movt	r3, #65535	; 0xffff
    49f0:	e3022690 	movw	r2, #9872	; 0x2690
    49f4:	e24b1004 	sub	r1, r11, #4
    49f8:	e0813003 	add	r3, r1, r3
    49fc:	e0832002 	add	r2, r3, r2
    4a00:	e30e38e4 	movw	r3, #59620	; 0xe8e4
    4a04:	e34f3fff 	movt	r3, #65535	; 0xffff
    4a08:	e1c230b0 	strh	r3, [r2]
    4a0c:	e3003af8 	movw	r3, #2808	; 0xaf8
    4a10:	e34f3fff 	movt	r3, #65535	; 0xffff
    4a14:	e3022692 	movw	r2, #9874	; 0x2692
    4a18:	e24b1004 	sub	r1, r11, #4
    4a1c:	e0813003 	add	r3, r1, r3
    4a20:	e0832002 	add	r2, r3, r2
    4a24:	e30e38e4 	movw	r3, #59620	; 0xe8e4
    4a28:	e34f3fff 	movt	r3, #65535	; 0xffff
    4a2c:	e1c230b0 	strh	r3, [r2]
    4a30:	e3003af8 	movw	r3, #2808	; 0xaf8
    4a34:	e34f3fff 	movt	r3, #65535	; 0xffff
    4a38:	e30226c4 	movw	r2, #9924	; 0x26c4
    4a3c:	e24b1004 	sub	r1, r11, #4
    4a40:	e0813003 	add	r3, r1, r3
    4a44:	e0833002 	add	r3, r3, r2
    4a48:	e3e0207f 	mvn	r2, #127	; 0x7f
    4a4c:	e1c320b0 	strh	r2, [r3]
    4a50:	e3003af8 	movw	r3, #2808	; 0xaf8
    4a54:	e34f3fff 	movt	r3, #65535	; 0xffff
    4a58:	e30226d8 	movw	r2, #9944	; 0x26d8
    4a5c:	e24b1004 	sub	r1, r11, #4
    4a60:	e0813003 	add	r3, r1, r3
    4a64:	e0832002 	add	r2, r3, r2
    4a68:	e30b3724 	movw	r3, #46884	; 0xb724
    4a6c:	e34f3fff 	movt	r3, #65535	; 0xffff
    4a70:	e1c230b0 	strh	r3, [r2]
    4a74:	e3003af8 	movw	r3, #2808	; 0xaf8
    4a78:	e34f3fff 	movt	r3, #65535	; 0xffff
    4a7c:	e30226da 	movw	r2, #9946	; 0x26da
    4a80:	e24b1004 	sub	r1, r11, #4
    4a84:	e0813003 	add	r3, r1, r3
    4a88:	e0832002 	add	r2, r3, r2
    4a8c:	e30b3724 	movw	r3, #46884	; 0xb724
    4a90:	e34f3fff 	movt	r3, #65535	; 0xffff
    4a94:	e1c230b0 	strh	r3, [r2]
    4a98:	e3003af8 	movw	r3, #2808	; 0xaf8
    4a9c:	e34f3fff 	movt	r3, #65535	; 0xffff
    4aa0:	e30226dc 	movw	r2, #9948	; 0x26dc
    4aa4:	e24b1004 	sub	r1, r11, #4
    4aa8:	e0813003 	add	r3, r1, r3
    4aac:	e0832002 	add	r2, r3, r2
    4ab0:	e30b3724 	movw	r3, #46884	; 0xb724
    4ab4:	e34f3fff 	movt	r3, #65535	; 0xffff
    4ab8:	e1c230b0 	strh	r3, [r2]
    4abc:	e3003af8 	movw	r3, #2808	; 0xaf8
    4ac0:	e34f3fff 	movt	r3, #65535	; 0xffff
    4ac4:	e30226de 	movw	r2, #9950	; 0x26de
    4ac8:	e24b1004 	sub	r1, r11, #4
    4acc:	e0813003 	add	r3, r1, r3
    4ad0:	e0832002 	add	r2, r3, r2
    4ad4:	e30b3724 	movw	r3, #46884	; 0xb724
    4ad8:	e34f3fff 	movt	r3, #65535	; 0xffff
    4adc:	e1c230b0 	strh	r3, [r2]
    4ae0:	e3003af8 	movw	r3, #2808	; 0xaf8
    4ae4:	e34f3fff 	movt	r3, #65535	; 0xffff
    4ae8:	e3022728 	movw	r2, #10024	; 0x2728
    4aec:	e24b1004 	sub	r1, r11, #4
    4af0:	e0813003 	add	r3, r1, r3
    4af4:	e0833002 	add	r3, r3, r2
    4af8:	e3e0207f 	mvn	r2, #127	; 0x7f
    4afc:	e1c320b0 	strh	r2, [r3]
    4b00:	e3003af8 	movw	r3, #2808	; 0xaf8
    4b04:	e34f3fff 	movt	r3, #65535	; 0xffff
    4b08:	e302272a 	movw	r2, #10026	; 0x272a
    4b0c:	e24b1004 	sub	r1, r11, #4
    4b10:	e0813003 	add	r3, r1, r3
    4b14:	e0833002 	add	r3, r3, r2
    4b18:	e3e0207f 	mvn	r2, #127	; 0x7f
    4b1c:	e1c320b0 	strh	r2, [r3]
    4b20:	e3003af8 	movw	r3, #2808	; 0xaf8
    4b24:	e34f3fff 	movt	r3, #65535	; 0xffff
    4b28:	e302272c 	movw	r2, #10028	; 0x272c
    4b2c:	e24b1004 	sub	r1, r11, #4
    4b30:	e0813003 	add	r3, r1, r3
    4b34:	e0833002 	add	r3, r3, r2
    4b38:	e3e0207f 	mvn	r2, #127	; 0x7f
    4b3c:	e1c320b0 	strh	r2, [r3]
    4b40:	e3003af8 	movw	r3, #2808	; 0xaf8
    4b44:	e34f3fff 	movt	r3, #65535	; 0xffff
    4b48:	e3022746 	movw	r2, #10054	; 0x2746
    4b4c:	e24b1004 	sub	r1, r11, #4
    4b50:	e0813003 	add	r3, r1, r3
    4b54:	e0832002 	add	r2, r3, r2
    4b58:	e30e38e4 	movw	r3, #59620	; 0xe8e4
    4b5c:	e34f3fff 	movt	r3, #65535	; 0xffff
    4b60:	e1c230b0 	strh	r3, [r2]
    4b64:	e3003af8 	movw	r3, #2808	; 0xaf8
    4b68:	e34f3fff 	movt	r3, #65535	; 0xffff
    4b6c:	e3022748 	movw	r2, #10056	; 0x2748
    4b70:	e24b1004 	sub	r1, r11, #4
    4b74:	e0813003 	add	r3, r1, r3
    4b78:	e0832002 	add	r2, r3, r2
    4b7c:	e30e38e4 	movw	r3, #59620	; 0xe8e4
    4b80:	e34f3fff 	movt	r3, #65535	; 0xffff
    4b84:	e1c230b0 	strh	r3, [r2]
    4b88:	e3003af8 	movw	r3, #2808	; 0xaf8
    4b8c:	e34f3fff 	movt	r3, #65535	; 0xffff
    4b90:	e302274a 	movw	r2, #10058	; 0x274a
    4b94:	e24b1004 	sub	r1, r11, #4
    4b98:	e0813003 	add	r3, r1, r3
    4b9c:	e0832002 	add	r2, r3, r2
    4ba0:	e30e38e4 	movw	r3, #59620	; 0xe8e4
    4ba4:	e34f3fff 	movt	r3, #65535	; 0xffff
    4ba8:	e1c230b0 	strh	r3, [r2]
    4bac:	e3003af8 	movw	r3, #2808	; 0xaf8
    4bb0:	e34f3fff 	movt	r3, #65535	; 0xffff
    4bb4:	e302274c 	movw	r2, #10060	; 0x274c
    4bb8:	e24b1004 	sub	r1, r11, #4
    4bbc:	e0813003 	add	r3, r1, r3
    4bc0:	e0832002 	add	r2, r3, r2
    4bc4:	e30e38e4 	movw	r3, #59620	; 0xe8e4
    4bc8:	e34f3fff 	movt	r3, #65535	; 0xffff
    4bcc:	e1c230b0 	strh	r3, [r2]
    4bd0:	e3003af8 	movw	r3, #2808	; 0xaf8
    4bd4:	e34f3fff 	movt	r3, #65535	; 0xffff
    4bd8:	e302274e 	movw	r2, #10062	; 0x274e
    4bdc:	e24b1004 	sub	r1, r11, #4
    4be0:	e0813003 	add	r3, r1, r3
    4be4:	e0832002 	add	r2, r3, r2
    4be8:	e30e38e4 	movw	r3, #59620	; 0xe8e4
    4bec:	e34f3fff 	movt	r3, #65535	; 0xffff
    4bf0:	e1c230b0 	strh	r3, [r2]
    4bf4:	e3003af8 	movw	r3, #2808	; 0xaf8
    4bf8:	e34f3fff 	movt	r3, #65535	; 0xffff
    4bfc:	e3022750 	movw	r2, #10064	; 0x2750
    4c00:	e24b1004 	sub	r1, r11, #4
    4c04:	e0813003 	add	r3, r1, r3
    4c08:	e0832002 	add	r2, r3, r2
    4c0c:	e30e38e4 	movw	r3, #59620	; 0xe8e4
    4c10:	e34f3fff 	movt	r3, #65535	; 0xffff
    4c14:	e1c230b0 	strh	r3, [r2]
    4c18:	e3003af8 	movw	r3, #2808	; 0xaf8
    4c1c:	e34f3fff 	movt	r3, #65535	; 0xffff
    4c20:	e3022752 	movw	r2, #10066	; 0x2752
    4c24:	e24b1004 	sub	r1, r11, #4
    4c28:	e0813003 	add	r3, r1, r3
    4c2c:	e0832002 	add	r2, r3, r2
    4c30:	e30e38e4 	movw	r3, #59620	; 0xe8e4
    4c34:	e34f3fff 	movt	r3, #65535	; 0xffff
    4c38:	e1c230b0 	strh	r3, [r2]
    4c3c:	e3003af8 	movw	r3, #2808	; 0xaf8
    4c40:	e34f3fff 	movt	r3, #65535	; 0xffff
    4c44:	e3022754 	movw	r2, #10068	; 0x2754
    4c48:	e24b1004 	sub	r1, r11, #4
    4c4c:	e0813003 	add	r3, r1, r3
    4c50:	e0832002 	add	r2, r3, r2
    4c54:	e30e38e4 	movw	r3, #59620	; 0xe8e4
    4c58:	e34f3fff 	movt	r3, #65535	; 0xffff
    4c5c:	e1c230b0 	strh	r3, [r2]
    4c60:	e3003af8 	movw	r3, #2808	; 0xaf8
    4c64:	e34f3fff 	movt	r3, #65535	; 0xffff
    4c68:	e3022756 	movw	r2, #10070	; 0x2756
    4c6c:	e24b1004 	sub	r1, r11, #4
    4c70:	e0813003 	add	r3, r1, r3
    4c74:	e0832002 	add	r2, r3, r2
    4c78:	e30e38e4 	movw	r3, #59620	; 0xe8e4
    4c7c:	e34f3fff 	movt	r3, #65535	; 0xffff
    4c80:	e1c230b0 	strh	r3, [r2]
    4c84:	e3003af8 	movw	r3, #2808	; 0xaf8
    4c88:	e34f3fff 	movt	r3, #65535	; 0xffff
    4c8c:	e3022758 	movw	r2, #10072	; 0x2758
    4c90:	e24b1004 	sub	r1, r11, #4
    4c94:	e0813003 	add	r3, r1, r3
    4c98:	e0832002 	add	r2, r3, r2
    4c9c:	e30e38e4 	movw	r3, #59620	; 0xe8e4
    4ca0:	e34f3fff 	movt	r3, #65535	; 0xffff
    4ca4:	e1c230b0 	strh	r3, [r2]
    4ca8:	e3003af8 	movw	r3, #2808	; 0xaf8
    4cac:	e34f3fff 	movt	r3, #65535	; 0xffff
    4cb0:	e3022788 	movw	r2, #10120	; 0x2788
    4cb4:	e24b1004 	sub	r1, r11, #4
    4cb8:	e0813003 	add	r3, r1, r3
    4cbc:	e0833002 	add	r3, r3, r2
    4cc0:	e3e0207f 	mvn	r2, #127	; 0x7f
    4cc4:	e1c320b0 	strh	r2, [r3]
    4cc8:	e3003af8 	movw	r3, #2808	; 0xaf8
    4ccc:	e34f3fff 	movt	r3, #65535	; 0xffff
    4cd0:	e302279c 	movw	r2, #10140	; 0x279c
    4cd4:	e24b1004 	sub	r1, r11, #4
    4cd8:	e0813003 	add	r3, r1, r3
    4cdc:	e0832002 	add	r2, r3, r2
    4ce0:	e30b3724 	movw	r3, #46884	; 0xb724
    4ce4:	e34f3fff 	movt	r3, #65535	; 0xffff
    4ce8:	e1c230b0 	strh	r3, [r2]
    4cec:	e3003af8 	movw	r3, #2808	; 0xaf8
    4cf0:	e34f3fff 	movt	r3, #65535	; 0xffff
    4cf4:	e302279e 	movw	r2, #10142	; 0x279e
    4cf8:	e24b1004 	sub	r1, r11, #4
    4cfc:	e0813003 	add	r3, r1, r3
    4d00:	e0832002 	add	r2, r3, r2
    4d04:	e30b3724 	movw	r3, #46884	; 0xb724
    4d08:	e34f3fff 	movt	r3, #65535	; 0xffff
    4d0c:	e1c230b0 	strh	r3, [r2]
    4d10:	e3003af8 	movw	r3, #2808	; 0xaf8
    4d14:	e34f3fff 	movt	r3, #65535	; 0xffff
    4d18:	e30227a0 	movw	r2, #10144	; 0x27a0
    4d1c:	e24b1004 	sub	r1, r11, #4
    4d20:	e0813003 	add	r3, r1, r3
    4d24:	e0832002 	add	r2, r3, r2
    4d28:	e30b3724 	movw	r3, #46884	; 0xb724
    4d2c:	e34f3fff 	movt	r3, #65535	; 0xffff
    4d30:	e1c230b0 	strh	r3, [r2]
    4d34:	e3003af8 	movw	r3, #2808	; 0xaf8
    4d38:	e34f3fff 	movt	r3, #65535	; 0xffff
    4d3c:	e30227a2 	movw	r2, #10146	; 0x27a2
    4d40:	e24b1004 	sub	r1, r11, #4
    4d44:	e0813003 	add	r3, r1, r3
    4d48:	e0832002 	add	r2, r3, r2
    4d4c:	e30b3724 	movw	r3, #46884	; 0xb724
    4d50:	e34f3fff 	movt	r3, #65535	; 0xffff
    4d54:	e1c230b0 	strh	r3, [r2]
    4d58:	e3003af8 	movw	r3, #2808	; 0xaf8
    4d5c:	e34f3fff 	movt	r3, #65535	; 0xffff
    4d60:	e30227ee 	movw	r2, #10222	; 0x27ee
    4d64:	e24b1004 	sub	r1, r11, #4
    4d68:	e0813003 	add	r3, r1, r3
    4d6c:	e0833002 	add	r3, r3, r2
    4d70:	e3e0207f 	mvn	r2, #127	; 0x7f
    4d74:	e1c320b0 	strh	r2, [r3]
    4d78:	e3003af8 	movw	r3, #2808	; 0xaf8
    4d7c:	e34f3fff 	movt	r3, #65535	; 0xffff
    4d80:	e3022814 	movw	r2, #10260	; 0x2814
    4d84:	e24b1004 	sub	r1, r11, #4
    4d88:	e0813003 	add	r3, r1, r3
    4d8c:	e0832002 	add	r2, r3, r2
    4d90:	e30e38e4 	movw	r3, #59620	; 0xe8e4
    4d94:	e34f3fff 	movt	r3, #65535	; 0xffff
    4d98:	e1c230b0 	strh	r3, [r2]
    4d9c:	e3003af8 	movw	r3, #2808	; 0xaf8
    4da0:	e34f3fff 	movt	r3, #65535	; 0xffff
    4da4:	e3022816 	movw	r2, #10262	; 0x2816
    4da8:	e24b1004 	sub	r1, r11, #4
    4dac:	e0813003 	add	r3, r1, r3
    4db0:	e0832002 	add	r2, r3, r2
    4db4:	e30e38e4 	movw	r3, #59620	; 0xe8e4
    4db8:	e34f3fff 	movt	r3, #65535	; 0xffff
    4dbc:	e1c230b0 	strh	r3, [r2]
    4dc0:	e3003af8 	movw	r3, #2808	; 0xaf8
    4dc4:	e34f3fff 	movt	r3, #65535	; 0xffff
    4dc8:	e3022818 	movw	r2, #10264	; 0x2818
    4dcc:	e24b1004 	sub	r1, r11, #4
    4dd0:	e0813003 	add	r3, r1, r3
    4dd4:	e0832002 	add	r2, r3, r2
    4dd8:	e30e38e4 	movw	r3, #59620	; 0xe8e4
    4ddc:	e34f3fff 	movt	r3, #65535	; 0xffff
    4de0:	e1c230b0 	strh	r3, [r2]
    4de4:	e3003af8 	movw	r3, #2808	; 0xaf8
    4de8:	e34f3fff 	movt	r3, #65535	; 0xffff
    4dec:	e302281a 	movw	r2, #10266	; 0x281a
    4df0:	e24b1004 	sub	r1, r11, #4
    4df4:	e0813003 	add	r3, r1, r3
    4df8:	e0832002 	add	r2, r3, r2
    4dfc:	e30e38e4 	movw	r3, #59620	; 0xe8e4
    4e00:	e34f3fff 	movt	r3, #65535	; 0xffff
    4e04:	e1c230b0 	strh	r3, [r2]
    4e08:	e3003af8 	movw	r3, #2808	; 0xaf8
    4e0c:	e34f3fff 	movt	r3, #65535	; 0xffff
    4e10:	e302281c 	movw	r2, #10268	; 0x281c
    4e14:	e24b1004 	sub	r1, r11, #4
    4e18:	e0813003 	add	r3, r1, r3
    4e1c:	e0832002 	add	r2, r3, r2
    4e20:	e30e38e4 	movw	r3, #59620	; 0xe8e4
    4e24:	e34f3fff 	movt	r3, #65535	; 0xffff
    4e28:	e1c230b0 	strh	r3, [r2]
    4e2c:	e3003af8 	movw	r3, #2808	; 0xaf8
    4e30:	e34f3fff 	movt	r3, #65535	; 0xffff
    4e34:	e302281e 	movw	r2, #10270	; 0x281e
    4e38:	e24b1004 	sub	r1, r11, #4
    4e3c:	e0813003 	add	r3, r1, r3
    4e40:	e0832002 	add	r2, r3, r2
    4e44:	e30e38e4 	movw	r3, #59620	; 0xe8e4
    4e48:	e34f3fff 	movt	r3, #65535	; 0xffff
    4e4c:	e1c230b0 	strh	r3, [r2]
    4e50:	e3003af8 	movw	r3, #2808	; 0xaf8
    4e54:	e34f3fff 	movt	r3, #65535	; 0xffff
    4e58:	e3022820 	movw	r2, #10272	; 0x2820
    4e5c:	e24b1004 	sub	r1, r11, #4
    4e60:	e0813003 	add	r3, r1, r3
    4e64:	e0832002 	add	r2, r3, r2
    4e68:	e30e38e4 	movw	r3, #59620	; 0xe8e4
    4e6c:	e34f3fff 	movt	r3, #65535	; 0xffff
    4e70:	e1c230b0 	strh	r3, [r2]
    4e74:	e3003af8 	movw	r3, #2808	; 0xaf8
    4e78:	e34f3fff 	movt	r3, #65535	; 0xffff
    4e7c:	e3022822 	movw	r2, #10274	; 0x2822
    4e80:	e24b1004 	sub	r1, r11, #4
    4e84:	e0813003 	add	r3, r1, r3
    4e88:	e0832002 	add	r2, r3, r2
    4e8c:	e30e38e4 	movw	r3, #59620	; 0xe8e4
    4e90:	e34f3fff 	movt	r3, #65535	; 0xffff
    4e94:	e1c230b0 	strh	r3, [r2]
    4e98:	e3003af8 	movw	r3, #2808	; 0xaf8
    4e9c:	e34f3fff 	movt	r3, #65535	; 0xffff
    4ea0:	e302284c 	movw	r2, #10316	; 0x284c
    4ea4:	e24b1004 	sub	r1, r11, #4
    4ea8:	e0813003 	add	r3, r1, r3
    4eac:	e0833002 	add	r3, r3, r2
    4eb0:	e3e0207f 	mvn	r2, #127	; 0x7f
    4eb4:	e1c320b0 	strh	r2, [r3]
    4eb8:	e3003af8 	movw	r3, #2808	; 0xaf8
    4ebc:	e34f3fff 	movt	r3, #65535	; 0xffff
    4ec0:	e3022862 	movw	r2, #10338	; 0x2862
    4ec4:	e24b1004 	sub	r1, r11, #4
    4ec8:	e0813003 	add	r3, r1, r3
    4ecc:	e0832002 	add	r2, r3, r2
    4ed0:	e30b3724 	movw	r3, #46884	; 0xb724
    4ed4:	e34f3fff 	movt	r3, #65535	; 0xffff
    4ed8:	e1c230b0 	strh	r3, [r2]
    4edc:	e3003af8 	movw	r3, #2808	; 0xaf8
    4ee0:	e34f3fff 	movt	r3, #65535	; 0xffff
    4ee4:	e3022864 	movw	r2, #10340	; 0x2864
    4ee8:	e24b1004 	sub	r1, r11, #4
    4eec:	e0813003 	add	r3, r1, r3
    4ef0:	e0832002 	add	r2, r3, r2
    4ef4:	e30b3724 	movw	r3, #46884	; 0xb724
    4ef8:	e34f3fff 	movt	r3, #65535	; 0xffff
    4efc:	e1c230b0 	strh	r3, [r2]
    4f00:	e3003af8 	movw	r3, #2808	; 0xaf8
    4f04:	e34f3fff 	movt	r3, #65535	; 0xffff
    4f08:	e30228b2 	movw	r2, #10418	; 0x28b2
    4f0c:	e24b1004 	sub	r1, r11, #4
    4f10:	e0813003 	add	r3, r1, r3
    4f14:	e0833002 	add	r3, r3, r2
    4f18:	e3e0207f 	mvn	r2, #127	; 0x7f
    4f1c:	e1c320b0 	strh	r2, [r3]
    4f20:	e3003af8 	movw	r3, #2808	; 0xaf8
    4f24:	e34f3fff 	movt	r3, #65535	; 0xffff
    4f28:	e30228dc 	movw	r2, #10460	; 0x28dc
    4f2c:	e24b1004 	sub	r1, r11, #4
    4f30:	e0813003 	add	r3, r1, r3
    4f34:	e0832002 	add	r2, r3, r2
    4f38:	e30e38e4 	movw	r3, #59620	; 0xe8e4
    4f3c:	e34f3fff 	movt	r3, #65535	; 0xffff
    4f40:	e1c230b0 	strh	r3, [r2]
    4f44:	e3003af8 	movw	r3, #2808	; 0xaf8
    4f48:	e34f3fff 	movt	r3, #65535	; 0xffff
    4f4c:	e30228de 	movw	r2, #10462	; 0x28de
    4f50:	e24b1004 	sub	r1, r11, #4
    4f54:	e0813003 	add	r3, r1, r3
    4f58:	e0832002 	add	r2, r3, r2
    4f5c:	e30e38e4 	movw	r3, #59620	; 0xe8e4
    4f60:	e34f3fff 	movt	r3, #65535	; 0xffff
    4f64:	e1c230b0 	strh	r3, [r2]
    4f68:	e3003af8 	movw	r3, #2808	; 0xaf8
    4f6c:	e34f3fff 	movt	r3, #65535	; 0xffff
    4f70:	e30228e0 	movw	r2, #10464	; 0x28e0
    4f74:	e24b1004 	sub	r1, r11, #4
    4f78:	e0813003 	add	r3, r1, r3
    4f7c:	e0832002 	add	r2, r3, r2
    4f80:	e30e38e4 	movw	r3, #59620	; 0xe8e4
    4f84:	e34f3fff 	movt	r3, #65535	; 0xffff
    4f88:	e1c230b0 	strh	r3, [r2]
    4f8c:	e3003af8 	movw	r3, #2808	; 0xaf8
    4f90:	e34f3fff 	movt	r3, #65535	; 0xffff
    4f94:	e30228e2 	movw	r2, #10466	; 0x28e2
    4f98:	e24b1004 	sub	r1, r11, #4
    4f9c:	e0813003 	add	r3, r1, r3
    4fa0:	e0832002 	add	r2, r3, r2
    4fa4:	e30e38e4 	movw	r3, #59620	; 0xe8e4
    4fa8:	e34f3fff 	movt	r3, #65535	; 0xffff
    4fac:	e1c230b0 	strh	r3, [r2]
    4fb0:	e3003af8 	movw	r3, #2808	; 0xaf8
    4fb4:	e34f3fff 	movt	r3, #65535	; 0xffff
    4fb8:	e30228e4 	movw	r2, #10468	; 0x28e4
    4fbc:	e24b1004 	sub	r1, r11, #4
    4fc0:	e0813003 	add	r3, r1, r3
    4fc4:	e0832002 	add	r2, r3, r2
    4fc8:	e30e38e4 	movw	r3, #59620	; 0xe8e4
    4fcc:	e34f3fff 	movt	r3, #65535	; 0xffff
    4fd0:	e1c230b0 	strh	r3, [r2]
    4fd4:	e3003af8 	movw	r3, #2808	; 0xaf8
    4fd8:	e34f3fff 	movt	r3, #65535	; 0xffff
    4fdc:	e30228e6 	movw	r2, #10470	; 0x28e6
    4fe0:	e24b1004 	sub	r1, r11, #4
    4fe4:	e0813003 	add	r3, r1, r3
    4fe8:	e0832002 	add	r2, r3, r2
    4fec:	e30e38e4 	movw	r3, #59620	; 0xe8e4
    4ff0:	e34f3fff 	movt	r3, #65535	; 0xffff
    4ff4:	e1c230b0 	strh	r3, [r2]
    4ff8:	e3003af8 	movw	r3, #2808	; 0xaf8
    4ffc:	e34f3fff 	movt	r3, #65535	; 0xffff
    5000:	e30228e8 	movw	r2, #10472	; 0x28e8
    5004:	e24b1004 	sub	r1, r11, #4
    5008:	e0813003 	add	r3, r1, r3
    500c:	e0832002 	add	r2, r3, r2
    5010:	e30e38e4 	movw	r3, #59620	; 0xe8e4
    5014:	e34f3fff 	movt	r3, #65535	; 0xffff
    5018:	e1c230b0 	strh	r3, [r2]
    501c:	e3003af8 	movw	r3, #2808	; 0xaf8
    5020:	e34f3fff 	movt	r3, #65535	; 0xffff
    5024:	e30228ea 	movw	r2, #10474	; 0x28ea
    5028:	e24b1004 	sub	r1, r11, #4
    502c:	e0813003 	add	r3, r1, r3
    5030:	e0832002 	add	r2, r3, r2
    5034:	e30e38e4 	movw	r3, #59620	; 0xe8e4
    5038:	e34f3fff 	movt	r3, #65535	; 0xffff
    503c:	e1c230b0 	strh	r3, [r2]
    5040:	e3003af8 	movw	r3, #2808	; 0xaf8
    5044:	e34f3fff 	movt	r3, #65535	; 0xffff
    5048:	e3022910 	movw	r2, #10512	; 0x2910
    504c:	e24b1004 	sub	r1, r11, #4
    5050:	e0813003 	add	r3, r1, r3
    5054:	e0833002 	add	r3, r3, r2
    5058:	e3e0207f 	mvn	r2, #127	; 0x7f
    505c:	e1c320b0 	strh	r2, [r3]
    5060:	e3003af8 	movw	r3, #2808	; 0xaf8
    5064:	e34f3fff 	movt	r3, #65535	; 0xffff
    5068:	e3022976 	movw	r2, #10614	; 0x2976
    506c:	e24b1004 	sub	r1, r11, #4
    5070:	e0813003 	add	r3, r1, r3
    5074:	e0833002 	add	r3, r3, r2
    5078:	e3e0207f 	mvn	r2, #127	; 0x7f
    507c:	e1c320b0 	strh	r2, [r3]
    5080:	e3003af8 	movw	r3, #2808	; 0xaf8
    5084:	e34f3fff 	movt	r3, #65535	; 0xffff
    5088:	e30229a2 	movw	r2, #10658	; 0x29a2
    508c:	e24b1004 	sub	r1, r11, #4
    5090:	e0813003 	add	r3, r1, r3
    5094:	e0832002 	add	r2, r3, r2
    5098:	e30e38e4 	movw	r3, #59620	; 0xe8e4
    509c:	e34f3fff 	movt	r3, #65535	; 0xffff
    50a0:	e1c230b0 	strh	r3, [r2]
    50a4:	e3003af8 	movw	r3, #2808	; 0xaf8
    50a8:	e34f3fff 	movt	r3, #65535	; 0xffff
    50ac:	e30229a4 	movw	r2, #10660	; 0x29a4
    50b0:	e24b1004 	sub	r1, r11, #4
    50b4:	e0813003 	add	r3, r1, r3
    50b8:	e0832002 	add	r2, r3, r2
    50bc:	e30e38e4 	movw	r3, #59620	; 0xe8e4
    50c0:	e34f3fff 	movt	r3, #65535	; 0xffff
    50c4:	e1c230b0 	strh	r3, [r2]
    50c8:	e3003af8 	movw	r3, #2808	; 0xaf8
    50cc:	e34f3fff 	movt	r3, #65535	; 0xffff
    50d0:	e30229a6 	movw	r2, #10662	; 0x29a6
    50d4:	e24b1004 	sub	r1, r11, #4
    50d8:	e0813003 	add	r3, r1, r3
    50dc:	e0832002 	add	r2, r3, r2
    50e0:	e30e38e4 	movw	r3, #59620	; 0xe8e4
    50e4:	e34f3fff 	movt	r3, #65535	; 0xffff
    50e8:	e1c230b0 	strh	r3, [r2]
    50ec:	e3003af8 	movw	r3, #2808	; 0xaf8
    50f0:	e34f3fff 	movt	r3, #65535	; 0xffff
    50f4:	e30229a8 	movw	r2, #10664	; 0x29a8
    50f8:	e24b1004 	sub	r1, r11, #4
    50fc:	e0813003 	add	r3, r1, r3
    5100:	e0832002 	add	r2, r3, r2
    5104:	e30e38e4 	movw	r3, #59620	; 0xe8e4
    5108:	e34f3fff 	movt	r3, #65535	; 0xffff
    510c:	e1c230b0 	strh	r3, [r2]
    5110:	e3003af8 	movw	r3, #2808	; 0xaf8
    5114:	e34f3fff 	movt	r3, #65535	; 0xffff
    5118:	e30229aa 	movw	r2, #10666	; 0x29aa
    511c:	e24b1004 	sub	r1, r11, #4
    5120:	e0813003 	add	r3, r1, r3
    5124:	e0832002 	add	r2, r3, r2
    5128:	e30e38e4 	movw	r3, #59620	; 0xe8e4
    512c:	e34f3fff 	movt	r3, #65535	; 0xffff
    5130:	e1c230b0 	strh	r3, [r2]
    5134:	e3003af8 	movw	r3, #2808	; 0xaf8
    5138:	e34f3fff 	movt	r3, #65535	; 0xffff
    513c:	e30229ac 	movw	r2, #10668	; 0x29ac
    5140:	e24b1004 	sub	r1, r11, #4
    5144:	e0813003 	add	r3, r1, r3
    5148:	e0832002 	add	r2, r3, r2
    514c:	e30e38e4 	movw	r3, #59620	; 0xe8e4
    5150:	e34f3fff 	movt	r3, #65535	; 0xffff
    5154:	e1c230b0 	strh	r3, [r2]
    5158:	e3003af8 	movw	r3, #2808	; 0xaf8
    515c:	e34f3fff 	movt	r3, #65535	; 0xffff
    5160:	e30229ae 	movw	r2, #10670	; 0x29ae
    5164:	e24b1004 	sub	r1, r11, #4
    5168:	e0813003 	add	r3, r1, r3
    516c:	e0832002 	add	r2, r3, r2
    5170:	e30e38e4 	movw	r3, #59620	; 0xe8e4
    5174:	e34f3fff 	movt	r3, #65535	; 0xffff
    5178:	e1c230b0 	strh	r3, [r2]
    517c:	e3003af8 	movw	r3, #2808	; 0xaf8
    5180:	e34f3fff 	movt	r3, #65535	; 0xffff
    5184:	e30229b0 	movw	r2, #10672	; 0x29b0
    5188:	e24b1004 	sub	r1, r11, #4
    518c:	e0813003 	add	r3, r1, r3
    5190:	e0832002 	add	r2, r3, r2
    5194:	e30e38e4 	movw	r3, #59620	; 0xe8e4
    5198:	e34f3fff 	movt	r3, #65535	; 0xffff
    519c:	e1c230b0 	strh	r3, [r2]
    51a0:	e3003af8 	movw	r3, #2808	; 0xaf8
    51a4:	e34f3fff 	movt	r3, #65535	; 0xffff
    51a8:	e30229d4 	movw	r2, #10708	; 0x29d4
    51ac:	e24b1004 	sub	r1, r11, #4
    51b0:	e0813003 	add	r3, r1, r3
    51b4:	e0833002 	add	r3, r3, r2
    51b8:	e3e0207f 	mvn	r2, #127	; 0x7f
    51bc:	e1c320b0 	strh	r2, [r3]
    51c0:	e3003af8 	movw	r3, #2808	; 0xaf8
    51c4:	e34f3fff 	movt	r3, #65535	; 0xffff
    51c8:	e3022a3a 	movw	r2, #10810	; 0x2a3a
    51cc:	e24b1004 	sub	r1, r11, #4
    51d0:	e0813003 	add	r3, r1, r3
    51d4:	e0833002 	add	r3, r3, r2
    51d8:	e3e0207f 	mvn	r2, #127	; 0x7f
    51dc:	e1c320b0 	strh	r2, [r3]
    51e0:	e3003af8 	movw	r3, #2808	; 0xaf8
    51e4:	e34f3fff 	movt	r3, #65535	; 0xffff
    51e8:	e3022a6a 	movw	r2, #10858	; 0x2a6a
    51ec:	e24b1004 	sub	r1, r11, #4
    51f0:	e0813003 	add	r3, r1, r3
    51f4:	e0832002 	add	r2, r3, r2
    51f8:	e30e38e4 	movw	r3, #59620	; 0xe8e4
    51fc:	e34f3fff 	movt	r3, #65535	; 0xffff
    5200:	e1c230b0 	strh	r3, [r2]
    5204:	e3003af8 	movw	r3, #2808	; 0xaf8
    5208:	e34f3fff 	movt	r3, #65535	; 0xffff
    520c:	e3022a6c 	movw	r2, #10860	; 0x2a6c
    5210:	e24b1004 	sub	r1, r11, #4
    5214:	e0813003 	add	r3, r1, r3
    5218:	e0832002 	add	r2, r3, r2
    521c:	e30e38e4 	movw	r3, #59620	; 0xe8e4
    5220:	e34f3fff 	movt	r3, #65535	; 0xffff
    5224:	e1c230b0 	strh	r3, [r2]
    5228:	e3003af8 	movw	r3, #2808	; 0xaf8
    522c:	e34f3fff 	movt	r3, #65535	; 0xffff
    5230:	e3022a6e 	movw	r2, #10862	; 0x2a6e
    5234:	e24b1004 	sub	r1, r11, #4
    5238:	e0813003 	add	r3, r1, r3
    523c:	e0832002 	add	r2, r3, r2
    5240:	e30e38e4 	movw	r3, #59620	; 0xe8e4
    5244:	e34f3fff 	movt	r3, #65535	; 0xffff
    5248:	e1c230b0 	strh	r3, [r2]
    524c:	e3003af8 	movw	r3, #2808	; 0xaf8
    5250:	e34f3fff 	movt	r3, #65535	; 0xffff
    5254:	e3022a70 	movw	r2, #10864	; 0x2a70
    5258:	e24b1004 	sub	r1, r11, #4
    525c:	e0813003 	add	r3, r1, r3
    5260:	e0832002 	add	r2, r3, r2
    5264:	e30e38e4 	movw	r3, #59620	; 0xe8e4
    5268:	e34f3fff 	movt	r3, #65535	; 0xffff
    526c:	e1c230b0 	strh	r3, [r2]
    5270:	e3003af8 	movw	r3, #2808	; 0xaf8
    5274:	e34f3fff 	movt	r3, #65535	; 0xffff
    5278:	e3022a72 	movw	r2, #10866	; 0x2a72
    527c:	e24b1004 	sub	r1, r11, #4
    5280:	e0813003 	add	r3, r1, r3
    5284:	e0832002 	add	r2, r3, r2
    5288:	e30e38e4 	movw	r3, #59620	; 0xe8e4
    528c:	e34f3fff 	movt	r3, #65535	; 0xffff
    5290:	e1c230b0 	strh	r3, [r2]
    5294:	e3003af8 	movw	r3, #2808	; 0xaf8
    5298:	e34f3fff 	movt	r3, #65535	; 0xffff
    529c:	e3022a74 	movw	r2, #10868	; 0x2a74
    52a0:	e24b1004 	sub	r1, r11, #4
    52a4:	e0813003 	add	r3, r1, r3
    52a8:	e0832002 	add	r2, r3, r2
    52ac:	e30e38e4 	movw	r3, #59620	; 0xe8e4
    52b0:	e34f3fff 	movt	r3, #65535	; 0xffff
    52b4:	e1c230b0 	strh	r3, [r2]
    52b8:	e3003af8 	movw	r3, #2808	; 0xaf8
    52bc:	e34f3fff 	movt	r3, #65535	; 0xffff
    52c0:	e3022a98 	movw	r2, #10904	; 0x2a98
    52c4:	e24b1004 	sub	r1, r11, #4
    52c8:	e0813003 	add	r3, r1, r3
    52cc:	e0833002 	add	r3, r3, r2
    52d0:	e3e0207f 	mvn	r2, #127	; 0x7f
    52d4:	e1c320b0 	strh	r2, [r3]
    52d8:	e3003af8 	movw	r3, #2808	; 0xaf8
    52dc:	e34f3fff 	movt	r3, #65535	; 0xffff
    52e0:	e3022ae8 	movw	r2, #10984	; 0x2ae8
    52e4:	e24b1004 	sub	r1, r11, #4
    52e8:	e0813003 	add	r3, r1, r3
    52ec:	e0832002 	add	r2, r3, r2
    52f0:	e30b3724 	movw	r3, #46884	; 0xb724
    52f4:	e34f3fff 	movt	r3, #65535	; 0xffff
    52f8:	e1c230b0 	strh	r3, [r2]
    52fc:	e3003af8 	movw	r3, #2808	; 0xaf8
    5300:	e34f3fff 	movt	r3, #65535	; 0xffff
    5304:	e3022aea 	movw	r2, #10986	; 0x2aea
    5308:	e24b1004 	sub	r1, r11, #4
    530c:	e0813003 	add	r3, r1, r3
    5310:	e0832002 	add	r2, r3, r2
    5314:	e30b3724 	movw	r3, #46884	; 0xb724
    5318:	e34f3fff 	movt	r3, #65535	; 0xffff
    531c:	e1c230b0 	strh	r3, [r2]
    5320:	e3003af8 	movw	r3, #2808	; 0xaf8
    5324:	e34f3fff 	movt	r3, #65535	; 0xffff
    5328:	e3022afe 	movw	r2, #11006	; 0x2afe
    532c:	e24b1004 	sub	r1, r11, #4
    5330:	e0813003 	add	r3, r1, r3
    5334:	e0833002 	add	r3, r3, r2
    5338:	e3e0207f 	mvn	r2, #127	; 0x7f
    533c:	e1c320b0 	strh	r2, [r3]
    5340:	e3003af8 	movw	r3, #2808	; 0xaf8
    5344:	e34f3fff 	movt	r3, #65535	; 0xffff
    5348:	e3022b32 	movw	r2, #11058	; 0x2b32
    534c:	e24b1004 	sub	r1, r11, #4
    5350:	e0813003 	add	r3, r1, r3
    5354:	e0832002 	add	r2, r3, r2
    5358:	e30e38e4 	movw	r3, #59620	; 0xe8e4
    535c:	e34f3fff 	movt	r3, #65535	; 0xffff
    5360:	e1c230b0 	strh	r3, [r2]
    5364:	e3003af8 	movw	r3, #2808	; 0xaf8
    5368:	e34f3fff 	movt	r3, #65535	; 0xffff
    536c:	e3022b34 	movw	r2, #11060	; 0x2b34
    5370:	e24b1004 	sub	r1, r11, #4
    5374:	e0813003 	add	r3, r1, r3
    5378:	e0832002 	add	r2, r3, r2
    537c:	e30e38e4 	movw	r3, #59620	; 0xe8e4
    5380:	e34f3fff 	movt	r3, #65535	; 0xffff
    5384:	e1c230b0 	strh	r3, [r2]
    5388:	e3003af8 	movw	r3, #2808	; 0xaf8
    538c:	e34f3fff 	movt	r3, #65535	; 0xffff
    5390:	e3022b36 	movw	r2, #11062	; 0x2b36
    5394:	e24b1004 	sub	r1, r11, #4
    5398:	e0813003 	add	r3, r1, r3
    539c:	e0832002 	add	r2, r3, r2
    53a0:	e30e38e4 	movw	r3, #59620	; 0xe8e4
    53a4:	e34f3fff 	movt	r3, #65535	; 0xffff
    53a8:	e1c230b0 	strh	r3, [r2]
    53ac:	e3003af8 	movw	r3, #2808	; 0xaf8
    53b0:	e34f3fff 	movt	r3, #65535	; 0xffff
    53b4:	e3022b38 	movw	r2, #11064	; 0x2b38
    53b8:	e24b1004 	sub	r1, r11, #4
    53bc:	e0813003 	add	r3, r1, r3
    53c0:	e0832002 	add	r2, r3, r2
    53c4:	e30e38e4 	movw	r3, #59620	; 0xe8e4
    53c8:	e34f3fff 	movt	r3, #65535	; 0xffff
    53cc:	e1c230b0 	strh	r3, [r2]
    53d0:	e3003af8 	movw	r3, #2808	; 0xaf8
    53d4:	e34f3fff 	movt	r3, #65535	; 0xffff
    53d8:	e3022b3a 	movw	r2, #11066	; 0x2b3a
    53dc:	e24b1004 	sub	r1, r11, #4
    53e0:	e0813003 	add	r3, r1, r3
    53e4:	e0832002 	add	r2, r3, r2
    53e8:	e30e38e4 	movw	r3, #59620	; 0xe8e4
    53ec:	e34f3fff 	movt	r3, #65535	; 0xffff
    53f0:	e1c230b0 	strh	r3, [r2]
    53f4:	e3003af8 	movw	r3, #2808	; 0xaf8
    53f8:	e34f3fff 	movt	r3, #65535	; 0xffff
    53fc:	e3022b3c 	movw	r2, #11068	; 0x2b3c
    5400:	e24b1004 	sub	r1, r11, #4
    5404:	e0813003 	add	r3, r1, r3
    5408:	e0832002 	add	r2, r3, r2
    540c:	e30e38e4 	movw	r3, #59620	; 0xe8e4
    5410:	e34f3fff 	movt	r3, #65535	; 0xffff
    5414:	e1c230b0 	strh	r3, [r2]
    5418:	e3003af8 	movw	r3, #2808	; 0xaf8
    541c:	e34f3fff 	movt	r3, #65535	; 0xffff
    5420:	e3022b3e 	movw	r2, #11070	; 0x2b3e
    5424:	e24b1004 	sub	r1, r11, #4
    5428:	e0813003 	add	r3, r1, r3
    542c:	e0832002 	add	r2, r3, r2
    5430:	e30e38e4 	movw	r3, #59620	; 0xe8e4
    5434:	e34f3fff 	movt	r3, #65535	; 0xffff
    5438:	e1c230b0 	strh	r3, [r2]
    543c:	e3003af8 	movw	r3, #2808	; 0xaf8
    5440:	e34f3fff 	movt	r3, #65535	; 0xffff
    5444:	e3a02dad 	mov	r2, #11072	; 0x2b40
    5448:	e24b1004 	sub	r1, r11, #4
    544c:	e0813003 	add	r3, r1, r3
    5450:	e0832002 	add	r2, r3, r2
    5454:	e30e38e4 	movw	r3, #59620	; 0xe8e4
    5458:	e34f3fff 	movt	r3, #65535	; 0xffff
    545c:	e1c230b0 	strh	r3, [r2]
    5460:	e3003af8 	movw	r3, #2808	; 0xaf8
    5464:	e34f3fff 	movt	r3, #65535	; 0xffff
    5468:	e3022b5c 	movw	r2, #11100	; 0x2b5c
    546c:	e24b1004 	sub	r1, r11, #4
    5470:	e0813003 	add	r3, r1, r3
    5474:	e0833002 	add	r3, r3, r2
    5478:	e3e0207f 	mvn	r2, #127	; 0x7f
    547c:	e1c320b0 	strh	r2, [r3]
    5480:	e3003af8 	movw	r3, #2808	; 0xaf8
    5484:	e34f3fff 	movt	r3, #65535	; 0xffff
    5488:	e3022baa 	movw	r2, #11178	; 0x2baa
    548c:	e24b1004 	sub	r1, r11, #4
    5490:	e0813003 	add	r3, r1, r3
    5494:	e0832002 	add	r2, r3, r2
    5498:	e30b3724 	movw	r3, #46884	; 0xb724
    549c:	e34f3fff 	movt	r3, #65535	; 0xffff
    54a0:	e1c230b0 	strh	r3, [r2]
    54a4:	e3003af8 	movw	r3, #2808	; 0xaf8
    54a8:	e34f3fff 	movt	r3, #65535	; 0xffff
    54ac:	e3022bac 	movw	r2, #11180	; 0x2bac
    54b0:	e24b1004 	sub	r1, r11, #4
    54b4:	e0813003 	add	r3, r1, r3
    54b8:	e0832002 	add	r2, r3, r2
    54bc:	e30b3724 	movw	r3, #46884	; 0xb724
    54c0:	e34f3fff 	movt	r3, #65535	; 0xffff
    54c4:	e1c230b0 	strh	r3, [r2]
    54c8:	e3003af8 	movw	r3, #2808	; 0xaf8
    54cc:	e34f3fff 	movt	r3, #65535	; 0xffff
    54d0:	e3022bae 	movw	r2, #11182	; 0x2bae
    54d4:	e24b1004 	sub	r1, r11, #4
    54d8:	e0813003 	add	r3, r1, r3
    54dc:	e0832002 	add	r2, r3, r2
    54e0:	e30b3724 	movw	r3, #46884	; 0xb724
    54e4:	e34f3fff 	movt	r3, #65535	; 0xffff
    54e8:	e1c230b0 	strh	r3, [r2]
    54ec:	e3003af8 	movw	r3, #2808	; 0xaf8
    54f0:	e34f3fff 	movt	r3, #65535	; 0xffff
    54f4:	e3022bb0 	movw	r2, #11184	; 0x2bb0
    54f8:	e24b1004 	sub	r1, r11, #4
    54fc:	e0813003 	add	r3, r1, r3
    5500:	e0832002 	add	r2, r3, r2
    5504:	e30b3724 	movw	r3, #46884	; 0xb724
    5508:	e34f3fff 	movt	r3, #65535	; 0xffff
    550c:	e1c230b0 	strh	r3, [r2]
    5510:	e3003af8 	movw	r3, #2808	; 0xaf8
    5514:	e34f3fff 	movt	r3, #65535	; 0xffff
    5518:	e3022bc2 	movw	r2, #11202	; 0x2bc2
    551c:	e24b1004 	sub	r1, r11, #4
    5520:	e0813003 	add	r3, r1, r3
    5524:	e0833002 	add	r3, r3, r2
    5528:	e3e0207f 	mvn	r2, #127	; 0x7f
    552c:	e1c320b0 	strh	r2, [r3]
    5530:	e3003af8 	movw	r3, #2808	; 0xaf8
    5534:	e34f3fff 	movt	r3, #65535	; 0xffff
    5538:	e3022bf8 	movw	r2, #11256	; 0x2bf8
    553c:	e24b1004 	sub	r1, r11, #4
    5540:	e0813003 	add	r3, r1, r3
    5544:	e0832002 	add	r2, r3, r2
    5548:	e30e38e4 	movw	r3, #59620	; 0xe8e4
    554c:	e34f3fff 	movt	r3, #65535	; 0xffff
    5550:	e1c230b0 	strh	r3, [r2]
    5554:	e3003af8 	movw	r3, #2808	; 0xaf8
    5558:	e34f3fff 	movt	r3, #65535	; 0xffff
    555c:	e3022bfa 	movw	r2, #11258	; 0x2bfa
    5560:	e24b1004 	sub	r1, r11, #4
    5564:	e0813003 	add	r3, r1, r3
    5568:	e0832002 	add	r2, r3, r2
    556c:	e30e38e4 	movw	r3, #59620	; 0xe8e4
    5570:	e34f3fff 	movt	r3, #65535	; 0xffff
    5574:	e1c230b0 	strh	r3, [r2]
    5578:	e3003af8 	movw	r3, #2808	; 0xaf8
    557c:	e34f3fff 	movt	r3, #65535	; 0xffff
    5580:	e3022bfc 	movw	r2, #11260	; 0x2bfc
    5584:	e24b1004 	sub	r1, r11, #4
    5588:	e0813003 	add	r3, r1, r3
    558c:	e0832002 	add	r2, r3, r2
    5590:	e30e38e4 	movw	r3, #59620	; 0xe8e4
    5594:	e34f3fff 	movt	r3, #65535	; 0xffff
    5598:	e1c230b0 	strh	r3, [r2]
    559c:	e3003af8 	movw	r3, #2808	; 0xaf8
    55a0:	e34f3fff 	movt	r3, #65535	; 0xffff
    55a4:	e3022bfe 	movw	r2, #11262	; 0x2bfe
    55a8:	e24b1004 	sub	r1, r11, #4
    55ac:	e0813003 	add	r3, r1, r3
    55b0:	e0832002 	add	r2, r3, r2
    55b4:	e30e38e4 	movw	r3, #59620	; 0xe8e4
    55b8:	e34f3fff 	movt	r3, #65535	; 0xffff
    55bc:	e1c230b0 	strh	r3, [r2]
    55c0:	e3003af8 	movw	r3, #2808	; 0xaf8
    55c4:	e34f3fff 	movt	r3, #65535	; 0xffff
    55c8:	e3a02b0b 	mov	r2, #11264	; 0x2c00
    55cc:	e24b1004 	sub	r1, r11, #4
    55d0:	e0813003 	add	r3, r1, r3
    55d4:	e0832002 	add	r2, r3, r2
    55d8:	e30e38e4 	movw	r3, #59620	; 0xe8e4
    55dc:	e34f3fff 	movt	r3, #65535	; 0xffff
    55e0:	e1c230b0 	strh	r3, [r2]
    55e4:	e3003af8 	movw	r3, #2808	; 0xaf8
    55e8:	e34f3fff 	movt	r3, #65535	; 0xffff
    55ec:	e3022c02 	movw	r2, #11266	; 0x2c02
    55f0:	e24b1004 	sub	r1, r11, #4
    55f4:	e0813003 	add	r3, r1, r3
    55f8:	e0832002 	add	r2, r3, r2
    55fc:	e30e38e4 	movw	r3, #59620	; 0xe8e4
    5600:	e34f3fff 	movt	r3, #65535	; 0xffff
    5604:	e1c230b0 	strh	r3, [r2]
    5608:	e3003af8 	movw	r3, #2808	; 0xaf8
    560c:	e34f3fff 	movt	r3, #65535	; 0xffff
    5610:	e3022c04 	movw	r2, #11268	; 0x2c04
    5614:	e24b1004 	sub	r1, r11, #4
    5618:	e0813003 	add	r3, r1, r3
    561c:	e0832002 	add	r2, r3, r2
    5620:	e30e38e4 	movw	r3, #59620	; 0xe8e4
    5624:	e34f3fff 	movt	r3, #65535	; 0xffff
    5628:	e1c230b0 	strh	r3, [r2]
    562c:	e3003af8 	movw	r3, #2808	; 0xaf8
    5630:	e34f3fff 	movt	r3, #65535	; 0xffff
    5634:	e3022c20 	movw	r2, #11296	; 0x2c20
    5638:	e24b1004 	sub	r1, r11, #4
    563c:	e0813003 	add	r3, r1, r3
    5640:	e0833002 	add	r3, r3, r2
    5644:	e3e0207f 	mvn	r2, #127	; 0x7f
    5648:	e1c320b0 	strh	r2, [r3]
    564c:	e3003af8 	movw	r3, #2808	; 0xaf8
    5650:	e34f3fff 	movt	r3, #65535	; 0xffff
    5654:	e3022c6e 	movw	r2, #11374	; 0x2c6e
    5658:	e24b1004 	sub	r1, r11, #4
    565c:	e0813003 	add	r3, r1, r3
    5660:	e0832002 	add	r2, r3, r2
    5664:	e30b3724 	movw	r3, #46884	; 0xb724
    5668:	e34f3fff 	movt	r3, #65535	; 0xffff
    566c:	e1c230b0 	strh	r3, [r2]
    5670:	e3003af8 	movw	r3, #2808	; 0xaf8
    5674:	e34f3fff 	movt	r3, #65535	; 0xffff
    5678:	e3022c70 	movw	r2, #11376	; 0x2c70
    567c:	e24b1004 	sub	r1, r11, #4
    5680:	e0813003 	add	r3, r1, r3
    5684:	e0832002 	add	r2, r3, r2
    5688:	e30b3724 	movw	r3, #46884	; 0xb724
    568c:	e34f3fff 	movt	r3, #65535	; 0xffff
    5690:	e1c230b0 	strh	r3, [r2]
    5694:	e3003af8 	movw	r3, #2808	; 0xaf8
    5698:	e34f3fff 	movt	r3, #65535	; 0xffff
    569c:	e3022c72 	movw	r2, #11378	; 0x2c72
    56a0:	e24b1004 	sub	r1, r11, #4
    56a4:	e0813003 	add	r3, r1, r3
    56a8:	e0832002 	add	r2, r3, r2
    56ac:	e30b3724 	movw	r3, #46884	; 0xb724
    56b0:	e34f3fff 	movt	r3, #65535	; 0xffff
    56b4:	e1c230b0 	strh	r3, [r2]
    56b8:	e3003af8 	movw	r3, #2808	; 0xaf8
    56bc:	e34f3fff 	movt	r3, #65535	; 0xffff
    56c0:	e3022c74 	movw	r2, #11380	; 0x2c74
    56c4:	e24b1004 	sub	r1, r11, #4
    56c8:	e0813003 	add	r3, r1, r3
    56cc:	e0832002 	add	r2, r3, r2
    56d0:	e30b3724 	movw	r3, #46884	; 0xb724
    56d4:	e34f3fff 	movt	r3, #65535	; 0xffff
    56d8:	e1c230b0 	strh	r3, [r2]
    56dc:	e3003af8 	movw	r3, #2808	; 0xaf8
    56e0:	e34f3fff 	movt	r3, #65535	; 0xffff
    56e4:	e3022c84 	movw	r2, #11396	; 0x2c84
    56e8:	e24b1004 	sub	r1, r11, #4
    56ec:	e0813003 	add	r3, r1, r3
    56f0:	e0833002 	add	r3, r3, r2
    56f4:	e3e0207f 	mvn	r2, #127	; 0x7f
    56f8:	e1c320b0 	strh	r2, [r3]
    56fc:	e3003af8 	movw	r3, #2808	; 0xaf8
    5700:	e34f3fff 	movt	r3, #65535	; 0xffff
    5704:	e3022c86 	movw	r2, #11398	; 0x2c86
    5708:	e24b1004 	sub	r1, r11, #4
    570c:	e0813003 	add	r3, r1, r3
    5710:	e0833002 	add	r3, r3, r2
    5714:	e3e0207f 	mvn	r2, #127	; 0x7f
    5718:	e1c320b0 	strh	r2, [r3]
    571c:	e3003af8 	movw	r3, #2808	; 0xaf8
    5720:	e34f3fff 	movt	r3, #65535	; 0xffff
    5724:	e3022cbe 	movw	r2, #11454	; 0x2cbe
    5728:	e24b1004 	sub	r1, r11, #4
    572c:	e0813003 	add	r3, r1, r3
    5730:	e0832002 	add	r2, r3, r2
    5734:	e30e38e4 	movw	r3, #59620	; 0xe8e4
    5738:	e34f3fff 	movt	r3, #65535	; 0xffff
    573c:	e1c230b0 	strh	r3, [r2]
    5740:	e3003af8 	movw	r3, #2808	; 0xaf8
    5744:	e34f3fff 	movt	r3, #65535	; 0xffff
    5748:	e3a02db3 	mov	r2, #11456	; 0x2cc0
    574c:	e24b1004 	sub	r1, r11, #4
    5750:	e0813003 	add	r3, r1, r3
    5754:	e0832002 	add	r2, r3, r2
    5758:	e30e38e4 	movw	r3, #59620	; 0xe8e4
    575c:	e34f3fff 	movt	r3, #65535	; 0xffff
    5760:	e1c230b0 	strh	r3, [r2]
    5764:	e3003af8 	movw	r3, #2808	; 0xaf8
    5768:	e34f3fff 	movt	r3, #65535	; 0xffff
    576c:	e3022cc2 	movw	r2, #11458	; 0x2cc2
    5770:	e24b1004 	sub	r1, r11, #4
    5774:	e0813003 	add	r3, r1, r3
    5778:	e0832002 	add	r2, r3, r2
    577c:	e30e38e4 	movw	r3, #59620	; 0xe8e4
    5780:	e34f3fff 	movt	r3, #65535	; 0xffff
    5784:	e1c230b0 	strh	r3, [r2]
    5788:	e3003af8 	movw	r3, #2808	; 0xaf8
    578c:	e34f3fff 	movt	r3, #65535	; 0xffff
    5790:	e3022cc4 	movw	r2, #11460	; 0x2cc4
    5794:	e24b1004 	sub	r1, r11, #4
    5798:	e0813003 	add	r3, r1, r3
    579c:	e0832002 	add	r2, r3, r2
    57a0:	e30e38e4 	movw	r3, #59620	; 0xe8e4
    57a4:	e34f3fff 	movt	r3, #65535	; 0xffff
    57a8:	e1c230b0 	strh	r3, [r2]
    57ac:	e3003af8 	movw	r3, #2808	; 0xaf8
    57b0:	e34f3fff 	movt	r3, #65535	; 0xffff
    57b4:	e3022cc6 	movw	r2, #11462	; 0x2cc6
    57b8:	e24b1004 	sub	r1, r11, #4
    57bc:	e0813003 	add	r3, r1, r3
    57c0:	e0832002 	add	r2, r3, r2
    57c4:	e30e38e4 	movw	r3, #59620	; 0xe8e4
    57c8:	e34f3fff 	movt	r3, #65535	; 0xffff
    57cc:	e1c230b0 	strh	r3, [r2]
    57d0:	e3003af8 	movw	r3, #2808	; 0xaf8
    57d4:	e34f3fff 	movt	r3, #65535	; 0xffff
    57d8:	e3022cc8 	movw	r2, #11464	; 0x2cc8
    57dc:	e24b1004 	sub	r1, r11, #4
    57e0:	e0813003 	add	r3, r1, r3
    57e4:	e0832002 	add	r2, r3, r2
    57e8:	e30e38e4 	movw	r3, #59620	; 0xe8e4
    57ec:	e34f3fff 	movt	r3, #65535	; 0xffff
    57f0:	e1c230b0 	strh	r3, [r2]
    57f4:	e3003af8 	movw	r3, #2808	; 0xaf8
    57f8:	e34f3fff 	movt	r3, #65535	; 0xffff
    57fc:	e3022cca 	movw	r2, #11466	; 0x2cca
    5800:	e24b1004 	sub	r1, r11, #4
    5804:	e0813003 	add	r3, r1, r3
    5808:	e0832002 	add	r2, r3, r2
    580c:	e30e38e4 	movw	r3, #59620	; 0xe8e4
    5810:	e34f3fff 	movt	r3, #65535	; 0xffff
    5814:	e1c230b0 	strh	r3, [r2]
    5818:	e3003af8 	movw	r3, #2808	; 0xaf8
    581c:	e34f3fff 	movt	r3, #65535	; 0xffff
    5820:	e3022ce4 	movw	r2, #11492	; 0x2ce4
    5824:	e24b1004 	sub	r1, r11, #4
    5828:	e0813003 	add	r3, r1, r3
    582c:	e0833002 	add	r3, r3, r2
    5830:	e3e0207f 	mvn	r2, #127	; 0x7f
    5834:	e1c320b0 	strh	r2, [r3]
    5838:	e3003af8 	movw	r3, #2808	; 0xaf8
    583c:	e34f3fff 	movt	r3, #65535	; 0xffff
    5840:	e3022d34 	movw	r2, #11572	; 0x2d34
    5844:	e24b1004 	sub	r1, r11, #4
    5848:	e0813003 	add	r3, r1, r3
    584c:	e0832002 	add	r2, r3, r2
    5850:	e30b3724 	movw	r3, #46884	; 0xb724
    5854:	e34f3fff 	movt	r3, #65535	; 0xffff
    5858:	e1c230b0 	strh	r3, [r2]
    585c:	e3003af8 	movw	r3, #2808	; 0xaf8
    5860:	e34f3fff 	movt	r3, #65535	; 0xffff
    5864:	e3022d36 	movw	r2, #11574	; 0x2d36
    5868:	e24b1004 	sub	r1, r11, #4
    586c:	e0813003 	add	r3, r1, r3
    5870:	e0832002 	add	r2, r3, r2
    5874:	e30b3724 	movw	r3, #46884	; 0xb724
    5878:	e34f3fff 	movt	r3, #65535	; 0xffff
    587c:	e1c230b0 	strh	r3, [r2]
    5880:	e3003af8 	movw	r3, #2808	; 0xaf8
    5884:	e34f3fff 	movt	r3, #65535	; 0xffff
    5888:	e3022d46 	movw	r2, #11590	; 0x2d46
    588c:	e24b1004 	sub	r1, r11, #4
    5890:	e0813003 	add	r3, r1, r3
    5894:	e0833002 	add	r3, r3, r2
    5898:	e3e0207f 	mvn	r2, #127	; 0x7f
    589c:	e1c320b0 	strh	r2, [r3]
    58a0:	e3003af8 	movw	r3, #2808	; 0xaf8
    58a4:	e34f3fff 	movt	r3, #65535	; 0xffff
    58a8:	e3022d48 	movw	r2, #11592	; 0x2d48
    58ac:	e24b1004 	sub	r1, r11, #4
    58b0:	e0813003 	add	r3, r1, r3
    58b4:	e0833002 	add	r3, r3, r2
    58b8:	e3e0207f 	mvn	r2, #127	; 0x7f
    58bc:	e1c320b0 	strh	r2, [r3]
    58c0:	e3003af8 	movw	r3, #2808	; 0xaf8
    58c4:	e34f3fff 	movt	r3, #65535	; 0xffff
    58c8:	e3022d88 	movw	r2, #11656	; 0x2d88
    58cc:	e24b1004 	sub	r1, r11, #4
    58d0:	e0813003 	add	r3, r1, r3
    58d4:	e0832002 	add	r2, r3, r2
    58d8:	e30e38e4 	movw	r3, #59620	; 0xe8e4
    58dc:	e34f3fff 	movt	r3, #65535	; 0xffff
    58e0:	e1c230b0 	strh	r3, [r2]
    58e4:	e3003af8 	movw	r3, #2808	; 0xaf8
    58e8:	e34f3fff 	movt	r3, #65535	; 0xffff
    58ec:	e3022d8a 	movw	r2, #11658	; 0x2d8a
    58f0:	e24b1004 	sub	r1, r11, #4
    58f4:	e0813003 	add	r3, r1, r3
    58f8:	e0832002 	add	r2, r3, r2
    58fc:	e30e38e4 	movw	r3, #59620	; 0xe8e4
    5900:	e34f3fff 	movt	r3, #65535	; 0xffff
    5904:	e1c230b0 	strh	r3, [r2]
    5908:	e3003af8 	movw	r3, #2808	; 0xaf8
    590c:	e34f3fff 	movt	r3, #65535	; 0xffff
    5910:	e3022d8c 	movw	r2, #11660	; 0x2d8c
    5914:	e24b1004 	sub	r1, r11, #4
    5918:	e0813003 	add	r3, r1, r3
    591c:	e0832002 	add	r2, r3, r2
    5920:	e30e38e4 	movw	r3, #59620	; 0xe8e4
    5924:	e34f3fff 	movt	r3, #65535	; 0xffff
    5928:	e1c230b0 	strh	r3, [r2]
    592c:	e3003af8 	movw	r3, #2808	; 0xaf8
    5930:	e34f3fff 	movt	r3, #65535	; 0xffff
    5934:	e3022d8e 	movw	r2, #11662	; 0x2d8e
    5938:	e24b1004 	sub	r1, r11, #4
    593c:	e0813003 	add	r3, r1, r3
    5940:	e0832002 	add	r2, r3, r2
    5944:	e30e38e4 	movw	r3, #59620	; 0xe8e4
    5948:	e34f3fff 	movt	r3, #65535	; 0xffff
    594c:	e1c230b0 	strh	r3, [r2]
    5950:	e3003af8 	movw	r3, #2808	; 0xaf8
    5954:	e34f3fff 	movt	r3, #65535	; 0xffff
    5958:	e3022d90 	movw	r2, #11664	; 0x2d90
    595c:	e24b1004 	sub	r1, r11, #4
    5960:	e0813003 	add	r3, r1, r3
    5964:	e0832002 	add	r2, r3, r2
    5968:	e30e38e4 	movw	r3, #59620	; 0xe8e4
    596c:	e34f3fff 	movt	r3, #65535	; 0xffff
    5970:	e1c230b0 	strh	r3, [r2]
    5974:	e3003af8 	movw	r3, #2808	; 0xaf8
    5978:	e34f3fff 	movt	r3, #65535	; 0xffff
    597c:	e3022d92 	movw	r2, #11666	; 0x2d92
    5980:	e24b1004 	sub	r1, r11, #4
    5984:	e0813003 	add	r3, r1, r3
    5988:	e0832002 	add	r2, r3, r2
    598c:	e30e38e4 	movw	r3, #59620	; 0xe8e4
    5990:	e34f3fff 	movt	r3, #65535	; 0xffff
    5994:	e1c230b0 	strh	r3, [r2]
    5998:	e3003af8 	movw	r3, #2808	; 0xaf8
    599c:	e34f3fff 	movt	r3, #65535	; 0xffff
    59a0:	e3022d94 	movw	r2, #11668	; 0x2d94
    59a4:	e24b1004 	sub	r1, r11, #4
    59a8:	e0813003 	add	r3, r1, r3
    59ac:	e0832002 	add	r2, r3, r2
    59b0:	e30e38e4 	movw	r3, #59620	; 0xe8e4
    59b4:	e34f3fff 	movt	r3, #65535	; 0xffff
    59b8:	e1c230b0 	strh	r3, [r2]
    59bc:	e3003af8 	movw	r3, #2808	; 0xaf8
    59c0:	e34f3fff 	movt	r3, #65535	; 0xffff
    59c4:	e3022da8 	movw	r2, #11688	; 0x2da8
    59c8:	e24b1004 	sub	r1, r11, #4
    59cc:	e0813003 	add	r3, r1, r3
    59d0:	e0833002 	add	r3, r3, r2
    59d4:	e3e0207f 	mvn	r2, #127	; 0x7f
    59d8:	e1c320b0 	strh	r2, [r3]
    59dc:	e3003af8 	movw	r3, #2808	; 0xaf8
    59e0:	e34f3fff 	movt	r3, #65535	; 0xffff
    59e4:	e3022e0a 	movw	r2, #11786	; 0x2e0a
    59e8:	e24b1004 	sub	r1, r11, #4
    59ec:	e0813003 	add	r3, r1, r3
    59f0:	e0833002 	add	r3, r3, r2
    59f4:	e3e0207f 	mvn	r2, #127	; 0x7f
    59f8:	e1c320b0 	strh	r2, [r3]
    59fc:	e3003af8 	movw	r3, #2808	; 0xaf8
    5a00:	e34f3fff 	movt	r3, #65535	; 0xffff
    5a04:	e3022e4e 	movw	r2, #11854	; 0x2e4e
    5a08:	e24b1004 	sub	r1, r11, #4
    5a0c:	e0813003 	add	r3, r1, r3
    5a10:	e0832002 	add	r2, r3, r2
    5a14:	e30e38e4 	movw	r3, #59620	; 0xe8e4
    5a18:	e34f3fff 	movt	r3, #65535	; 0xffff
    5a1c:	e1c230b0 	strh	r3, [r2]
    5a20:	e3003af8 	movw	r3, #2808	; 0xaf8
    5a24:	e34f3fff 	movt	r3, #65535	; 0xffff
    5a28:	e3022e50 	movw	r2, #11856	; 0x2e50
    5a2c:	e24b1004 	sub	r1, r11, #4
    5a30:	e0813003 	add	r3, r1, r3
    5a34:	e0832002 	add	r2, r3, r2
    5a38:	e30e38e4 	movw	r3, #59620	; 0xe8e4
    5a3c:	e34f3fff 	movt	r3, #65535	; 0xffff
    5a40:	e1c230b0 	strh	r3, [r2]
    5a44:	e3003af8 	movw	r3, #2808	; 0xaf8
    5a48:	e34f3fff 	movt	r3, #65535	; 0xffff
    5a4c:	e3022e52 	movw	r2, #11858	; 0x2e52
    5a50:	e24b1004 	sub	r1, r11, #4
    5a54:	e0813003 	add	r3, r1, r3
    5a58:	e0832002 	add	r2, r3, r2
    5a5c:	e30e38e4 	movw	r3, #59620	; 0xe8e4
    5a60:	e34f3fff 	movt	r3, #65535	; 0xffff
    5a64:	e1c230b0 	strh	r3, [r2]
    5a68:	e3003af8 	movw	r3, #2808	; 0xaf8
    5a6c:	e34f3fff 	movt	r3, #65535	; 0xffff
    5a70:	e3022e54 	movw	r2, #11860	; 0x2e54
    5a74:	e24b1004 	sub	r1, r11, #4
    5a78:	e0813003 	add	r3, r1, r3
    5a7c:	e0832002 	add	r2, r3, r2
    5a80:	e30e38e4 	movw	r3, #59620	; 0xe8e4
    5a84:	e34f3fff 	movt	r3, #65535	; 0xffff
    5a88:	e1c230b0 	strh	r3, [r2]
    5a8c:	e3003af8 	movw	r3, #2808	; 0xaf8
